; ModuleID = '/home/student/mq58/MengProj/meng-reconfigurable-computing/cordic_tutorial/amdpool/cordic.prj/solution1/.autopilot/db/a.o.3.bc'
target datalayout = "e-p:64:64:64-i1:8:8-i8:8:8-i16:16:16-i32:32:32-i64:64:64-f32:32:32-f64:64:64-v64:64:64-v128:128:128-a0:0:64-s0:64:64-f80:128:128-n8:16:32:64-S128"
target triple = "x86_64-unknown-linux-gnu"

@llvm_global_ctors_0 = appending global [1 x i32] [i32 65535] ; [#uses=0 type=[1 x i32]*]
@llvm_global_ctors_1 = appending global [1 x void ()*] [void ()* @_GLOBAL__I_a] ; [#uses=0 type=[1 x void ()*]*]
@dut_str = internal unnamed_addr constant [4 x i8] c"dut\00" ; [#uses=1 type=[4 x i8]*]
@ap_fifo_str = internal unnamed_addr constant [8 x i8] c"ap_fifo\00" ; [#uses=4 type=[8 x i8]*]
@p_str = internal unnamed_addr constant [1 x i8] zeroinitializer ; [#uses=4 type=[1 x i8]*]

; [#uses=0]
define void @dut(i32* %strm_in_V_V, i32* %strm_out_V_V) {
  %empty = call i32 (...)* @_ssdm_op_SpecInterface(i32* %strm_out_V_V, [8 x i8]* @ap_fifo_str, i32 0, i32 0, i32 0, i32 0, [1 x i8]* @p_str, [1 x i8]* @p_str, [8 x i8]* @ap_fifo_str) ; [#uses=0 type=i32]
  %empty_3 = call i32 (...)* @_ssdm_op_SpecInterface(i32* %strm_in_V_V, [8 x i8]* @ap_fifo_str, i32 0, i32 0, i32 0, i32 0, [1 x i8]* @p_str, [1 x i8]* @p_str, [8 x i8]* @ap_fifo_str) ; [#uses=0 type=i32]
  call void (...)* @_ssdm_op_SpecBitsMap(i32* %strm_in_V_V), !map !7
  call void (...)* @_ssdm_op_SpecBitsMap(i32* %strm_out_V_V), !map !11
  call void (...)* @_ssdm_op_SpecTopModule([4 x i8]* @dut_str) nounwind
  call void @llvm.dbg.value(metadata !{i32* %strm_in_V_V}, i64 0, metadata !15), !dbg !780 ; [debug line = 16:27] [debug variable = strm_in.V.V]
  call void @llvm.dbg.value(metadata !{i32* %strm_out_V_V}, i64 0, metadata !781), !dbg !783 ; [debug line = 17:27] [debug variable = strm_out.V.V]
  call void @llvm.dbg.value(metadata !{i32* %strm_in_V_V}, i64 0, metadata !784), !dbg !789 ; [debug line = 129:56@26:7] [debug variable = stream<ap_uint<32> >.V.V]
  %tmp_V_1 = call i32 @_ssdm_op_Read.ap_fifo.volatile.i32P(i32* %strm_in_V_V), !dbg !792 ; [#uses=1 type=i32] [debug line = 131:9@26:7]
  call void @llvm.dbg.value(metadata !{i32 %tmp_V_1}, i64 0, metadata !794), !dbg !792 ; [debug line = 131:9@26:7] [debug variable = tmp.V]
  call void @llvm.dbg.value(metadata !{i32 %tmp_V_1}, i64 0, metadata !796), !dbg !799 ; [debug line = 277:10@26:7] [debug variable = a.V]
  %tmp_V_2 = call i32 @_ssdm_op_Read.ap_fifo.volatile.i32P(i32* %strm_in_V_V), !dbg !802 ; [#uses=1 type=i32] [debug line = 131:9@27:7]
  call void @llvm.dbg.value(metadata !{i32 %tmp_V_2}, i64 0, metadata !794), !dbg !802 ; [debug line = 131:9@27:7] [debug variable = tmp.V]
  call void @llvm.dbg.value(metadata !{i32 %tmp_V_2}, i64 0, metadata !804), !dbg !806 ; [debug line = 277:10@27:7] [debug variable = b.V]
  %tmp_V = add i32 %tmp_V_2, %tmp_V_1, !dbg !807  ; [#uses=1 type=i32] [debug line = 226:91@226:106@50:9@32:3]
  call void @llvm.dbg.value(metadata !{i32 %tmp_V}, i64 0, metadata !1112), !dbg !1116 ; [debug line = 276:53@50:9@32:3] [debug variable = ssdm_int<32 + 1024 * 0, false>.V]
  call void @llvm.dbg.value(metadata !{i32 %tmp_V}, i64 0, metadata !1117), !dbg !1111 ; [debug line = 32:3] [debug variable = sum.V]
  call void @llvm.dbg.value(metadata !{i32* %strm_out_V_V}, i64 0, metadata !1119), !dbg !1122 ; [debug line = 144:48@38:3] [debug variable = stream<ap_uint<32> >.V.V]
  call void @llvm.dbg.value(metadata !{i32 %tmp_V}, i64 0, metadata !1124), !dbg !1127 ; [debug line = 145:31@38:3] [debug variable = tmp.V]
  call void @_ssdm_op_Write.ap_fifo.volatile.i32P(i32* %strm_out_V_V, i32 %tmp_V), !dbg !1128 ; [debug line = 146:9@38:3]
  ret void, !dbg !1129                            ; [debug line = 39:1]
}

; [#uses=11]
declare void @llvm.dbg.value(metadata, i64, metadata) nounwind readnone

; [#uses=1]
define weak void @_ssdm_op_SpecTopModule(...) {
entry:
  ret void
}

; [#uses=1]
declare void @_GLOBAL__I_a() nounwind section ".text.startup"

; [#uses=2]
define weak void @_ssdm_op_SpecBitsMap(...) {
entry:
  ret void
}

; [#uses=2]
define weak i32 @_ssdm_op_SpecInterface(...) {
entry:
  ret i32 0
}

; [#uses=2]
define weak i32 @_ssdm_op_Read.ap_fifo.volatile.i32P(i32*) {
entry:
  %empty = call i32 @_autotb_FifoRead_i32(i32* %0) ; [#uses=1 type=i32]
  ret i32 %empty
}

; [#uses=1]
define weak void @_ssdm_op_Write.ap_fifo.volatile.i32P(i32*, i32) {
entry:
  %empty = call i32 @_autotb_FifoWrite_i32(i32* %0, i32 %1) ; [#uses=0 type=i32]
  ret void
}

; [#uses=1]
declare i32 @_autotb_FifoRead_i32(i32*)

; [#uses=1]
declare i32 @_autotb_FifoWrite_i32(i32*, i32)

!hls.encrypted.func = !{}
!llvm.map.gv = !{!0}

!0 = metadata !{metadata !1, [1 x i32]* @llvm_global_ctors_0}
!1 = metadata !{metadata !2}
!2 = metadata !{i32 0, i32 31, metadata !3}
!3 = metadata !{metadata !4}
!4 = metadata !{metadata !"llvm.global_ctors.0", metadata !5, metadata !"", i32 0, i32 31}
!5 = metadata !{metadata !6}
!6 = metadata !{i32 0, i32 0, i32 1}
!7 = metadata !{metadata !8}
!8 = metadata !{i32 0, i32 31, metadata !9}
!9 = metadata !{metadata !10}
!10 = metadata !{metadata !"strm_in.V.V", metadata !5, metadata !"uint32", i32 0, i32 31}
!11 = metadata !{metadata !12}
!12 = metadata !{i32 0, i32 31, metadata !13}
!13 = metadata !{metadata !14}
!14 = metadata !{metadata !"strm_out.V.V", metadata !5, metadata !"uint32", i32 0, i32 31}
!15 = metadata !{i32 790531, metadata !16, metadata !"strm_in.V.V", null, i32 16, metadata !771, i32 0, i32 0} ; [ DW_TAG_arg_variable_field ]
!16 = metadata !{i32 786689, metadata !17, metadata !"strm_in", metadata !18, i32 16777232, metadata !21, i32 0, i32 0} ; [ DW_TAG_arg_variable ]
!17 = metadata !{i32 786478, i32 0, metadata !18, metadata !"dut", metadata !"dut", metadata !"_Z3dutRN3hls6streamI7ap_uintILi32EEEES4_", metadata !18, i32 15, metadata !19, i1 false, i1 true, i32 0, i32 0, null, i32 256, i1 false, null, null, null, metadata !44, i32 19} ; [ DW_TAG_subprogram ]
!18 = metadata !{i32 786473, metadata !"cordic.cpp", metadata !"/home/student/mq58/MengProj/meng-reconfigurable-computing/cordic_tutorial/amdpool", null} ; [ DW_TAG_file_type ]
!19 = metadata !{i32 786453, i32 0, metadata !"", i32 0, i32 0, i64 0, i64 0, i64 0, i32 0, null, metadata !20, i32 0, i32 0} ; [ DW_TAG_subroutine_type ]
!20 = metadata !{null, metadata !21, metadata !21}
!21 = metadata !{i32 786448, null, null, null, i32 0, i64 0, i64 0, i64 0, i32 0, metadata !22} ; [ DW_TAG_reference_type ]
!22 = metadata !{i32 786434, metadata !23, metadata !"stream<ap_uint<32> >", metadata !24, i32 79, i64 32, i64 32, i32 0, i32 0, null, metadata !25, i32 0, null, metadata !769} ; [ DW_TAG_class_type ]
!23 = metadata !{i32 786489, null, metadata !"hls", metadata !24, i32 69} ; [ DW_TAG_namespace ]
!24 = metadata !{i32 786473, metadata !"/research/brg/install/bare-pkgs/x86_64-centos6/pkgs/xilinx-vivado-2015.2/Vivado_HLS/2015.2/common/technology/autopilot/hls_stream.h", metadata !"/home/student/mq58/MengProj/meng-reconfigurable-computing/cordic_tutorial/amdpool", null} ; [ DW_TAG_file_type ]
!25 = metadata !{metadata !26, metadata !729, metadata !733, metadata !736, metadata !741, metadata !744, metadata !747, metadata !750, metadata !754, metadata !755, metadata !756, metadata !759, metadata !762, metadata !763, metadata !766}
!26 = metadata !{i32 786445, metadata !22, metadata !"V", metadata !24, i32 163, i64 32, i64 32, i64 0, i32 1, metadata !27} ; [ DW_TAG_member ]
!27 = metadata !{i32 786434, null, metadata !"ap_uint<32>", metadata !28, i32 180, i64 32, i64 32, i32 0, i32 0, null, metadata !29, i32 0, null, metadata !728} ; [ DW_TAG_class_type ]
!28 = metadata !{i32 786473, metadata !"/research/brg/install/bare-pkgs/x86_64-centos6/pkgs/xilinx-vivado-2015.2/Vivado_HLS/2015.2/common/technology/autopilot/ap_int.h", metadata !"/home/student/mq58/MengProj/meng-reconfigurable-computing/cordic_tutorial/amdpool", null} ; [ DW_TAG_file_type ]
!29 = metadata !{metadata !30, metadata !648, metadata !652, metadata !658, metadata !664, metadata !667, metadata !670, metadata !673, metadata !676, metadata !679, metadata !682, metadata !685, metadata !688, metadata !691, metadata !694, metadata !697, metadata !700, metadata !703, metadata !706, metadata !709, metadata !712, metadata !716, metadata !719, metadata !723, metadata !726, metadata !727}
!30 = metadata !{i32 786460, metadata !27, null, metadata !28, i32 0, i64 0, i64 0, i64 0, i32 0, metadata !31} ; [ DW_TAG_inheritance ]
!31 = metadata !{i32 786434, null, metadata !"ap_int_base<32, false, true>", metadata !32, i32 1396, i64 32, i64 32, i32 0, i32 0, null, metadata !33, i32 0, null, metadata !647} ; [ DW_TAG_class_type ]
!32 = metadata !{i32 786473, metadata !"/research/brg/install/bare-pkgs/x86_64-centos6/pkgs/xilinx-vivado-2015.2/Vivado_HLS/2015.2/common/technology/autopilot/ap_int_syn.h", metadata !"/home/student/mq58/MengProj/meng-reconfigurable-computing/cordic_tutorial/amdpool", null} ; [ DW_TAG_file_type ]
!33 = metadata !{metadata !34, metadata !56, metadata !60, metadata !68, metadata !74, metadata !77, metadata !81, metadata !85, metadata !89, metadata !93, metadata !96, metadata !100, metadata !104, metadata !108, metadata !113, metadata !118, metadata !122, metadata !126, metadata !132, metadata !135, metadata !139, metadata !142, metadata !145, metadata !146, metadata !150, metadata !153, metadata !156, metadata !159, metadata !162, metadata !165, metadata !168, metadata !171, metadata !174, metadata !177, metadata !180, metadata !183, metadata !193, metadata !196, metadata !197, metadata !198, metadata !199, metadata !200, metadata !203, metadata !206, metadata !209, metadata !212, metadata !215, metadata !218, metadata !221, metadata !222, metadata !226, metadata !229, metadata !230, metadata !231, metadata !232, metadata !233, metadata !234, metadata !237, metadata !238, metadata !241, metadata !242, metadata !243, metadata !244, metadata !245, metadata !246, metadata !249, metadata !250, metadata !251, metadata !254, metadata !255, metadata !258, metadata !259, metadata !549, metadata !611, metadata !612, metadata !615, metadata !616, metadata !620, metadata !621, metadata !622, metadata !623, metadata !626, metadata !627, metadata !628, metadata !629, metadata !630, metadata !631, metadata !632, metadata !633, metadata !634, metadata !635, metadata !636, metadata !637, metadata !640, metadata !643, metadata !646}
!34 = metadata !{i32 786460, metadata !31, null, metadata !32, i32 0, i64 0, i64 0, i64 0, i32 0, metadata !35} ; [ DW_TAG_inheritance ]
!35 = metadata !{i32 786434, null, metadata !"ssdm_int<32 + 1024 * 0, false>", metadata !36, i32 34, i64 32, i64 32, i32 0, i32 0, null, metadata !37, i32 0, null, metadata !51} ; [ DW_TAG_class_type ]
!36 = metadata !{i32 786473, metadata !"/research/brg/install/bare-pkgs/x86_64-centos6/pkgs/xilinx-vivado-2015.2/Vivado_HLS/2015.2/common/technology/autopilot/etc/autopilot_dt.def", metadata !"/home/student/mq58/MengProj/meng-reconfigurable-computing/cordic_tutorial/amdpool", null} ; [ DW_TAG_file_type ]
!37 = metadata !{metadata !38, metadata !40, metadata !46}
!38 = metadata !{i32 786445, metadata !35, metadata !"V", metadata !36, i32 34, i64 32, i64 32, i64 0, i32 0, metadata !39} ; [ DW_TAG_member ]
!39 = metadata !{i32 786468, null, metadata !"uint32", null, i32 0, i64 32, i64 32, i64 0, i32 0, i32 7} ; [ DW_TAG_base_type ]
!40 = metadata !{i32 786478, i32 0, metadata !35, metadata !"ssdm_int", metadata !"ssdm_int", metadata !"", metadata !36, i32 34, metadata !41, i1 false, i1 false, i32 0, i32 0, null, i32 256, i1 false, null, null, i32 0, metadata !44, i32 34} ; [ DW_TAG_subprogram ]
!41 = metadata !{i32 786453, i32 0, metadata !"", i32 0, i32 0, i64 0, i64 0, i64 0, i32 0, null, metadata !42, i32 0, i32 0} ; [ DW_TAG_subroutine_type ]
!42 = metadata !{null, metadata !43}
!43 = metadata !{i32 786447, i32 0, metadata !"", i32 0, i32 0, i64 64, i64 64, i64 0, i32 64, metadata !35} ; [ DW_TAG_pointer_type ]
!44 = metadata !{metadata !45}
!45 = metadata !{i32 786468}                      ; [ DW_TAG_base_type ]
!46 = metadata !{i32 786478, i32 0, metadata !35, metadata !"ssdm_int", metadata !"ssdm_int", metadata !"", metadata !36, i32 34, metadata !47, i1 false, i1 false, i32 0, i32 0, null, i32 320, i1 false, null, null, i32 0, metadata !44, i32 34} ; [ DW_TAG_subprogram ]
!47 = metadata !{i32 786453, i32 0, metadata !"", i32 0, i32 0, i64 0, i64 0, i64 0, i32 0, null, metadata !48, i32 0, i32 0} ; [ DW_TAG_subroutine_type ]
!48 = metadata !{null, metadata !43, metadata !49}
!49 = metadata !{i32 786448, null, null, null, i32 0, i64 0, i64 0, i64 0, i32 0, metadata !50} ; [ DW_TAG_reference_type ]
!50 = metadata !{i32 786470, null, metadata !"", null, i32 0, i64 0, i64 0, i64 0, i32 0, metadata !35} ; [ DW_TAG_const_type ]
!51 = metadata !{metadata !52, metadata !54}
!52 = metadata !{i32 786480, null, metadata !"_AP_N", metadata !53, i64 32, null, i32 0, i32 0} ; [ DW_TAG_template_value_parameter ]
!53 = metadata !{i32 786468, null, metadata !"int", null, i32 0, i64 32, i64 32, i64 0, i32 0, i32 5} ; [ DW_TAG_base_type ]
!54 = metadata !{i32 786480, null, metadata !"_AP_S", metadata !55, i64 0, null, i32 0, i32 0} ; [ DW_TAG_template_value_parameter ]
!55 = metadata !{i32 786468, null, metadata !"bool", null, i32 0, i64 8, i64 8, i64 0, i32 0, i32 2} ; [ DW_TAG_base_type ]
!56 = metadata !{i32 786478, i32 0, metadata !31, metadata !"ap_int_base", metadata !"ap_int_base", metadata !"", metadata !32, i32 1437, metadata !57, i1 false, i1 false, i32 0, i32 0, null, i32 256, i1 false, null, null, i32 0, metadata !44, i32 1437} ; [ DW_TAG_subprogram ]
!57 = metadata !{i32 786453, i32 0, metadata !"", i32 0, i32 0, i64 0, i64 0, i64 0, i32 0, null, metadata !58, i32 0, i32 0} ; [ DW_TAG_subroutine_type ]
!58 = metadata !{null, metadata !59}
!59 = metadata !{i32 786447, i32 0, metadata !"", i32 0, i32 0, i64 64, i64 64, i64 0, i32 64, metadata !31} ; [ DW_TAG_pointer_type ]
!60 = metadata !{i32 786478, i32 0, metadata !31, metadata !"ap_int_base<32, false>", metadata !"ap_int_base<32, false>", metadata !"", metadata !32, i32 1449, metadata !61, i1 false, i1 false, i32 0, i32 0, null, i32 256, i1 false, null, metadata !65, i32 0, metadata !44, i32 1449} ; [ DW_TAG_subprogram ]
!61 = metadata !{i32 786453, i32 0, metadata !"", i32 0, i32 0, i64 0, i64 0, i64 0, i32 0, null, metadata !62, i32 0, i32 0} ; [ DW_TAG_subroutine_type ]
!62 = metadata !{null, metadata !59, metadata !63}
!63 = metadata !{i32 786448, null, null, null, i32 0, i64 0, i64 0, i64 0, i32 0, metadata !64} ; [ DW_TAG_reference_type ]
!64 = metadata !{i32 786470, null, metadata !"", null, i32 0, i64 0, i64 0, i64 0, i32 0, metadata !31} ; [ DW_TAG_const_type ]
!65 = metadata !{metadata !66, metadata !67}
!66 = metadata !{i32 786480, null, metadata !"_AP_W2", metadata !53, i64 32, null, i32 0, i32 0} ; [ DW_TAG_template_value_parameter ]
!67 = metadata !{i32 786480, null, metadata !"_AP_S2", metadata !55, i64 0, null, i32 0, i32 0} ; [ DW_TAG_template_value_parameter ]
!68 = metadata !{i32 786478, i32 0, metadata !31, metadata !"ap_int_base<32, false>", metadata !"ap_int_base<32, false>", metadata !"", metadata !32, i32 1452, metadata !69, i1 false, i1 false, i32 0, i32 0, null, i32 256, i1 false, null, metadata !65, i32 0, metadata !44, i32 1452} ; [ DW_TAG_subprogram ]
!69 = metadata !{i32 786453, i32 0, metadata !"", i32 0, i32 0, i64 0, i64 0, i64 0, i32 0, null, metadata !70, i32 0, i32 0} ; [ DW_TAG_subroutine_type ]
!70 = metadata !{null, metadata !59, metadata !71}
!71 = metadata !{i32 786448, null, null, null, i32 0, i64 0, i64 0, i64 0, i32 0, metadata !72} ; [ DW_TAG_reference_type ]
!72 = metadata !{i32 786470, null, metadata !"", null, i32 0, i64 0, i64 0, i64 0, i32 0, metadata !73} ; [ DW_TAG_const_type ]
!73 = metadata !{i32 786485, null, metadata !"", null, i32 0, i64 0, i64 0, i64 0, i32 0, metadata !31} ; [ DW_TAG_volatile_type ]
!74 = metadata !{i32 786478, i32 0, metadata !31, metadata !"ap_int_base", metadata !"ap_int_base", metadata !"", metadata !32, i32 1459, metadata !75, i1 false, i1 false, i32 0, i32 0, null, i32 384, i1 false, null, null, i32 0, metadata !44, i32 1459} ; [ DW_TAG_subprogram ]
!75 = metadata !{i32 786453, i32 0, metadata !"", i32 0, i32 0, i64 0, i64 0, i64 0, i32 0, null, metadata !76, i32 0, i32 0} ; [ DW_TAG_subroutine_type ]
!76 = metadata !{null, metadata !59, metadata !55}
!77 = metadata !{i32 786478, i32 0, metadata !31, metadata !"ap_int_base", metadata !"ap_int_base", metadata !"", metadata !32, i32 1460, metadata !78, i1 false, i1 false, i32 0, i32 0, null, i32 384, i1 false, null, null, i32 0, metadata !44, i32 1460} ; [ DW_TAG_subprogram ]
!78 = metadata !{i32 786453, i32 0, metadata !"", i32 0, i32 0, i64 0, i64 0, i64 0, i32 0, null, metadata !79, i32 0, i32 0} ; [ DW_TAG_subroutine_type ]
!79 = metadata !{null, metadata !59, metadata !80}
!80 = metadata !{i32 786468, null, metadata !"signed char", null, i32 0, i64 8, i64 8, i64 0, i32 0, i32 6} ; [ DW_TAG_base_type ]
!81 = metadata !{i32 786478, i32 0, metadata !31, metadata !"ap_int_base", metadata !"ap_int_base", metadata !"", metadata !32, i32 1461, metadata !82, i1 false, i1 false, i32 0, i32 0, null, i32 384, i1 false, null, null, i32 0, metadata !44, i32 1461} ; [ DW_TAG_subprogram ]
!82 = metadata !{i32 786453, i32 0, metadata !"", i32 0, i32 0, i64 0, i64 0, i64 0, i32 0, null, metadata !83, i32 0, i32 0} ; [ DW_TAG_subroutine_type ]
!83 = metadata !{null, metadata !59, metadata !84}
!84 = metadata !{i32 786468, null, metadata !"unsigned char", null, i32 0, i64 8, i64 8, i64 0, i32 0, i32 8} ; [ DW_TAG_base_type ]
!85 = metadata !{i32 786478, i32 0, metadata !31, metadata !"ap_int_base", metadata !"ap_int_base", metadata !"", metadata !32, i32 1462, metadata !86, i1 false, i1 false, i32 0, i32 0, null, i32 384, i1 false, null, null, i32 0, metadata !44, i32 1462} ; [ DW_TAG_subprogram ]
!86 = metadata !{i32 786453, i32 0, metadata !"", i32 0, i32 0, i64 0, i64 0, i64 0, i32 0, null, metadata !87, i32 0, i32 0} ; [ DW_TAG_subroutine_type ]
!87 = metadata !{null, metadata !59, metadata !88}
!88 = metadata !{i32 786468, null, metadata !"short", null, i32 0, i64 16, i64 16, i64 0, i32 0, i32 5} ; [ DW_TAG_base_type ]
!89 = metadata !{i32 786478, i32 0, metadata !31, metadata !"ap_int_base", metadata !"ap_int_base", metadata !"", metadata !32, i32 1463, metadata !90, i1 false, i1 false, i32 0, i32 0, null, i32 384, i1 false, null, null, i32 0, metadata !44, i32 1463} ; [ DW_TAG_subprogram ]
!90 = metadata !{i32 786453, i32 0, metadata !"", i32 0, i32 0, i64 0, i64 0, i64 0, i32 0, null, metadata !91, i32 0, i32 0} ; [ DW_TAG_subroutine_type ]
!91 = metadata !{null, metadata !59, metadata !92}
!92 = metadata !{i32 786468, null, metadata !"unsigned short", null, i32 0, i64 16, i64 16, i64 0, i32 0, i32 7} ; [ DW_TAG_base_type ]
!93 = metadata !{i32 786478, i32 0, metadata !31, metadata !"ap_int_base", metadata !"ap_int_base", metadata !"", metadata !32, i32 1464, metadata !94, i1 false, i1 false, i32 0, i32 0, null, i32 384, i1 false, null, null, i32 0, metadata !44, i32 1464} ; [ DW_TAG_subprogram ]
!94 = metadata !{i32 786453, i32 0, metadata !"", i32 0, i32 0, i64 0, i64 0, i64 0, i32 0, null, metadata !95, i32 0, i32 0} ; [ DW_TAG_subroutine_type ]
!95 = metadata !{null, metadata !59, metadata !53}
!96 = metadata !{i32 786478, i32 0, metadata !31, metadata !"ap_int_base", metadata !"ap_int_base", metadata !"", metadata !32, i32 1465, metadata !97, i1 false, i1 false, i32 0, i32 0, null, i32 384, i1 false, null, null, i32 0, metadata !44, i32 1465} ; [ DW_TAG_subprogram ]
!97 = metadata !{i32 786453, i32 0, metadata !"", i32 0, i32 0, i64 0, i64 0, i64 0, i32 0, null, metadata !98, i32 0, i32 0} ; [ DW_TAG_subroutine_type ]
!98 = metadata !{null, metadata !59, metadata !99}
!99 = metadata !{i32 786468, null, metadata !"unsigned int", null, i32 0, i64 32, i64 32, i64 0, i32 0, i32 7} ; [ DW_TAG_base_type ]
!100 = metadata !{i32 786478, i32 0, metadata !31, metadata !"ap_int_base", metadata !"ap_int_base", metadata !"", metadata !32, i32 1466, metadata !101, i1 false, i1 false, i32 0, i32 0, null, i32 384, i1 false, null, null, i32 0, metadata !44, i32 1466} ; [ DW_TAG_subprogram ]
!101 = metadata !{i32 786453, i32 0, metadata !"", i32 0, i32 0, i64 0, i64 0, i64 0, i32 0, null, metadata !102, i32 0, i32 0} ; [ DW_TAG_subroutine_type ]
!102 = metadata !{null, metadata !59, metadata !103}
!103 = metadata !{i32 786468, null, metadata !"long int", null, i32 0, i64 64, i64 64, i64 0, i32 0, i32 5} ; [ DW_TAG_base_type ]
!104 = metadata !{i32 786478, i32 0, metadata !31, metadata !"ap_int_base", metadata !"ap_int_base", metadata !"", metadata !32, i32 1467, metadata !105, i1 false, i1 false, i32 0, i32 0, null, i32 384, i1 false, null, null, i32 0, metadata !44, i32 1467} ; [ DW_TAG_subprogram ]
!105 = metadata !{i32 786453, i32 0, metadata !"", i32 0, i32 0, i64 0, i64 0, i64 0, i32 0, null, metadata !106, i32 0, i32 0} ; [ DW_TAG_subroutine_type ]
!106 = metadata !{null, metadata !59, metadata !107}
!107 = metadata !{i32 786468, null, metadata !"long unsigned int", null, i32 0, i64 64, i64 64, i64 0, i32 0, i32 7} ; [ DW_TAG_base_type ]
!108 = metadata !{i32 786478, i32 0, metadata !31, metadata !"ap_int_base", metadata !"ap_int_base", metadata !"", metadata !32, i32 1468, metadata !109, i1 false, i1 false, i32 0, i32 0, null, i32 384, i1 false, null, null, i32 0, metadata !44, i32 1468} ; [ DW_TAG_subprogram ]
!109 = metadata !{i32 786453, i32 0, metadata !"", i32 0, i32 0, i64 0, i64 0, i64 0, i32 0, null, metadata !110, i32 0, i32 0} ; [ DW_TAG_subroutine_type ]
!110 = metadata !{null, metadata !59, metadata !111}
!111 = metadata !{i32 786454, null, metadata !"ap_slong", metadata !32, i32 110, i64 0, i64 0, i64 0, i32 0, metadata !112} ; [ DW_TAG_typedef ]
!112 = metadata !{i32 786468, null, metadata !"long long int", null, i32 0, i64 64, i64 64, i64 0, i32 0, i32 5} ; [ DW_TAG_base_type ]
!113 = metadata !{i32 786478, i32 0, metadata !31, metadata !"ap_int_base", metadata !"ap_int_base", metadata !"", metadata !32, i32 1469, metadata !114, i1 false, i1 false, i32 0, i32 0, null, i32 384, i1 false, null, null, i32 0, metadata !44, i32 1469} ; [ DW_TAG_subprogram ]
!114 = metadata !{i32 786453, i32 0, metadata !"", i32 0, i32 0, i64 0, i64 0, i64 0, i32 0, null, metadata !115, i32 0, i32 0} ; [ DW_TAG_subroutine_type ]
!115 = metadata !{null, metadata !59, metadata !116}
!116 = metadata !{i32 786454, null, metadata !"ap_ulong", metadata !32, i32 109, i64 0, i64 0, i64 0, i32 0, metadata !117} ; [ DW_TAG_typedef ]
!117 = metadata !{i32 786468, null, metadata !"long long unsigned int", null, i32 0, i64 64, i64 64, i64 0, i32 0, i32 7} ; [ DW_TAG_base_type ]
!118 = metadata !{i32 786478, i32 0, metadata !31, metadata !"ap_int_base", metadata !"ap_int_base", metadata !"", metadata !32, i32 1470, metadata !119, i1 false, i1 false, i32 0, i32 0, null, i32 384, i1 false, null, null, i32 0, metadata !44, i32 1470} ; [ DW_TAG_subprogram ]
!119 = metadata !{i32 786453, i32 0, metadata !"", i32 0, i32 0, i64 0, i64 0, i64 0, i32 0, null, metadata !120, i32 0, i32 0} ; [ DW_TAG_subroutine_type ]
!120 = metadata !{null, metadata !59, metadata !121}
!121 = metadata !{i32 786468, null, metadata !"float", null, i32 0, i64 32, i64 32, i64 0, i32 0, i32 4} ; [ DW_TAG_base_type ]
!122 = metadata !{i32 786478, i32 0, metadata !31, metadata !"ap_int_base", metadata !"ap_int_base", metadata !"", metadata !32, i32 1471, metadata !123, i1 false, i1 false, i32 0, i32 0, null, i32 384, i1 false, null, null, i32 0, metadata !44, i32 1471} ; [ DW_TAG_subprogram ]
!123 = metadata !{i32 786453, i32 0, metadata !"", i32 0, i32 0, i64 0, i64 0, i64 0, i32 0, null, metadata !124, i32 0, i32 0} ; [ DW_TAG_subroutine_type ]
!124 = metadata !{null, metadata !59, metadata !125}
!125 = metadata !{i32 786468, null, metadata !"double", null, i32 0, i64 64, i64 64, i64 0, i32 0, i32 4} ; [ DW_TAG_base_type ]
!126 = metadata !{i32 786478, i32 0, metadata !31, metadata !"ap_int_base", metadata !"ap_int_base", metadata !"", metadata !32, i32 1498, metadata !127, i1 false, i1 false, i32 0, i32 0, null, i32 256, i1 false, null, null, i32 0, metadata !44, i32 1498} ; [ DW_TAG_subprogram ]
!127 = metadata !{i32 786453, i32 0, metadata !"", i32 0, i32 0, i64 0, i64 0, i64 0, i32 0, null, metadata !128, i32 0, i32 0} ; [ DW_TAG_subroutine_type ]
!128 = metadata !{null, metadata !59, metadata !129}
!129 = metadata !{i32 786447, null, metadata !"", null, i32 0, i64 64, i64 64, i64 0, i32 0, metadata !130} ; [ DW_TAG_pointer_type ]
!130 = metadata !{i32 786470, null, metadata !"", null, i32 0, i64 0, i64 0, i64 0, i32 0, metadata !131} ; [ DW_TAG_const_type ]
!131 = metadata !{i32 786468, null, metadata !"char", null, i32 0, i64 8, i64 8, i64 0, i32 0, i32 6} ; [ DW_TAG_base_type ]
!132 = metadata !{i32 786478, i32 0, metadata !31, metadata !"ap_int_base", metadata !"ap_int_base", metadata !"", metadata !32, i32 1505, metadata !133, i1 false, i1 false, i32 0, i32 0, null, i32 256, i1 false, null, null, i32 0, metadata !44, i32 1505} ; [ DW_TAG_subprogram ]
!133 = metadata !{i32 786453, i32 0, metadata !"", i32 0, i32 0, i64 0, i64 0, i64 0, i32 0, null, metadata !134, i32 0, i32 0} ; [ DW_TAG_subroutine_type ]
!134 = metadata !{null, metadata !59, metadata !129, metadata !80}
!135 = metadata !{i32 786478, i32 0, metadata !31, metadata !"read", metadata !"read", metadata !"_ZNV11ap_int_baseILi32ELb0ELb1EE4readEv", metadata !32, i32 1526, metadata !136, i1 false, i1 false, i32 0, i32 0, null, i32 256, i1 false, null, null, i32 0, metadata !44, i32 1526} ; [ DW_TAG_subprogram ]
!136 = metadata !{i32 786453, i32 0, metadata !"", i32 0, i32 0, i64 0, i64 0, i64 0, i32 0, null, metadata !137, i32 0, i32 0} ; [ DW_TAG_subroutine_type ]
!137 = metadata !{metadata !31, metadata !138}
!138 = metadata !{i32 786447, i32 0, metadata !"", i32 0, i32 0, i64 64, i64 64, i64 0, i32 64, metadata !73} ; [ DW_TAG_pointer_type ]
!139 = metadata !{i32 786478, i32 0, metadata !31, metadata !"write", metadata !"write", metadata !"_ZNV11ap_int_baseILi32ELb0ELb1EE5writeERKS0_", metadata !32, i32 1532, metadata !140, i1 false, i1 false, i32 0, i32 0, null, i32 256, i1 false, null, null, i32 0, metadata !44, i32 1532} ; [ DW_TAG_subprogram ]
!140 = metadata !{i32 786453, i32 0, metadata !"", i32 0, i32 0, i64 0, i64 0, i64 0, i32 0, null, metadata !141, i32 0, i32 0} ; [ DW_TAG_subroutine_type ]
!141 = metadata !{null, metadata !138, metadata !63}
!142 = metadata !{i32 786478, i32 0, metadata !31, metadata !"operator=", metadata !"operator=", metadata !"_ZNV11ap_int_baseILi32ELb0ELb1EEaSERVKS0_", metadata !32, i32 1544, metadata !143, i1 false, i1 false, i32 0, i32 0, null, i32 256, i1 false, null, null, i32 0, metadata !44, i32 1544} ; [ DW_TAG_subprogram ]
!143 = metadata !{i32 786453, i32 0, metadata !"", i32 0, i32 0, i64 0, i64 0, i64 0, i32 0, null, metadata !144, i32 0, i32 0} ; [ DW_TAG_subroutine_type ]
!144 = metadata !{null, metadata !138, metadata !71}
!145 = metadata !{i32 786478, i32 0, metadata !31, metadata !"operator=", metadata !"operator=", metadata !"_ZNV11ap_int_baseILi32ELb0ELb1EEaSERKS0_", metadata !32, i32 1553, metadata !140, i1 false, i1 false, i32 0, i32 0, null, i32 256, i1 false, null, null, i32 0, metadata !44, i32 1553} ; [ DW_TAG_subprogram ]
!146 = metadata !{i32 786478, i32 0, metadata !31, metadata !"operator=", metadata !"operator=", metadata !"_ZN11ap_int_baseILi32ELb0ELb1EEaSERVKS0_", metadata !32, i32 1576, metadata !147, i1 false, i1 false, i32 0, i32 0, null, i32 256, i1 false, null, null, i32 0, metadata !44, i32 1576} ; [ DW_TAG_subprogram ]
!147 = metadata !{i32 786453, i32 0, metadata !"", i32 0, i32 0, i64 0, i64 0, i64 0, i32 0, null, metadata !148, i32 0, i32 0} ; [ DW_TAG_subroutine_type ]
!148 = metadata !{metadata !149, metadata !59, metadata !71}
!149 = metadata !{i32 786448, null, null, null, i32 0, i64 0, i64 0, i64 0, i32 0, metadata !31} ; [ DW_TAG_reference_type ]
!150 = metadata !{i32 786478, i32 0, metadata !31, metadata !"operator=", metadata !"operator=", metadata !"_ZN11ap_int_baseILi32ELb0ELb1EEaSERKS0_", metadata !32, i32 1581, metadata !151, i1 false, i1 false, i32 0, i32 0, null, i32 256, i1 false, null, null, i32 0, metadata !44, i32 1581} ; [ DW_TAG_subprogram ]
!151 = metadata !{i32 786453, i32 0, metadata !"", i32 0, i32 0, i64 0, i64 0, i64 0, i32 0, null, metadata !152, i32 0, i32 0} ; [ DW_TAG_subroutine_type ]
!152 = metadata !{metadata !149, metadata !59, metadata !63}
!153 = metadata !{i32 786478, i32 0, metadata !31, metadata !"operator=", metadata !"operator=", metadata !"_ZN11ap_int_baseILi32ELb0ELb1EEaSEPKc", metadata !32, i32 1585, metadata !154, i1 false, i1 false, i32 0, i32 0, null, i32 256, i1 false, null, null, i32 0, metadata !44, i32 1585} ; [ DW_TAG_subprogram ]
!154 = metadata !{i32 786453, i32 0, metadata !"", i32 0, i32 0, i64 0, i64 0, i64 0, i32 0, null, metadata !155, i32 0, i32 0} ; [ DW_TAG_subroutine_type ]
!155 = metadata !{metadata !149, metadata !59, metadata !129}
!156 = metadata !{i32 786478, i32 0, metadata !31, metadata !"set", metadata !"set", metadata !"_ZN11ap_int_baseILi32ELb0ELb1EE3setEPKca", metadata !32, i32 1593, metadata !157, i1 false, i1 false, i32 0, i32 0, null, i32 256, i1 false, null, null, i32 0, metadata !44, i32 1593} ; [ DW_TAG_subprogram ]
!157 = metadata !{i32 786453, i32 0, metadata !"", i32 0, i32 0, i64 0, i64 0, i64 0, i32 0, null, metadata !158, i32 0, i32 0} ; [ DW_TAG_subroutine_type ]
!158 = metadata !{metadata !149, metadata !59, metadata !129, metadata !80}
!159 = metadata !{i32 786478, i32 0, metadata !31, metadata !"operator=", metadata !"operator=", metadata !"_ZN11ap_int_baseILi32ELb0ELb1EEaSEc", metadata !32, i32 1607, metadata !160, i1 false, i1 false, i32 0, i32 0, null, i32 256, i1 false, null, null, i32 0, metadata !44, i32 1607} ; [ DW_TAG_subprogram ]
!160 = metadata !{i32 786453, i32 0, metadata !"", i32 0, i32 0, i64 0, i64 0, i64 0, i32 0, null, metadata !161, i32 0, i32 0} ; [ DW_TAG_subroutine_type ]
!161 = metadata !{metadata !149, metadata !59, metadata !131}
!162 = metadata !{i32 786478, i32 0, metadata !31, metadata !"operator=", metadata !"operator=", metadata !"_ZN11ap_int_baseILi32ELb0ELb1EEaSEh", metadata !32, i32 1608, metadata !163, i1 false, i1 false, i32 0, i32 0, null, i32 256, i1 false, null, null, i32 0, metadata !44, i32 1608} ; [ DW_TAG_subprogram ]
!163 = metadata !{i32 786453, i32 0, metadata !"", i32 0, i32 0, i64 0, i64 0, i64 0, i32 0, null, metadata !164, i32 0, i32 0} ; [ DW_TAG_subroutine_type ]
!164 = metadata !{metadata !149, metadata !59, metadata !84}
!165 = metadata !{i32 786478, i32 0, metadata !31, metadata !"operator=", metadata !"operator=", metadata !"_ZN11ap_int_baseILi32ELb0ELb1EEaSEs", metadata !32, i32 1609, metadata !166, i1 false, i1 false, i32 0, i32 0, null, i32 256, i1 false, null, null, i32 0, metadata !44, i32 1609} ; [ DW_TAG_subprogram ]
!166 = metadata !{i32 786453, i32 0, metadata !"", i32 0, i32 0, i64 0, i64 0, i64 0, i32 0, null, metadata !167, i32 0, i32 0} ; [ DW_TAG_subroutine_type ]
!167 = metadata !{metadata !149, metadata !59, metadata !88}
!168 = metadata !{i32 786478, i32 0, metadata !31, metadata !"operator=", metadata !"operator=", metadata !"_ZN11ap_int_baseILi32ELb0ELb1EEaSEt", metadata !32, i32 1610, metadata !169, i1 false, i1 false, i32 0, i32 0, null, i32 256, i1 false, null, null, i32 0, metadata !44, i32 1610} ; [ DW_TAG_subprogram ]
!169 = metadata !{i32 786453, i32 0, metadata !"", i32 0, i32 0, i64 0, i64 0, i64 0, i32 0, null, metadata !170, i32 0, i32 0} ; [ DW_TAG_subroutine_type ]
!170 = metadata !{metadata !149, metadata !59, metadata !92}
!171 = metadata !{i32 786478, i32 0, metadata !31, metadata !"operator=", metadata !"operator=", metadata !"_ZN11ap_int_baseILi32ELb0ELb1EEaSEi", metadata !32, i32 1611, metadata !172, i1 false, i1 false, i32 0, i32 0, null, i32 256, i1 false, null, null, i32 0, metadata !44, i32 1611} ; [ DW_TAG_subprogram ]
!172 = metadata !{i32 786453, i32 0, metadata !"", i32 0, i32 0, i64 0, i64 0, i64 0, i32 0, null, metadata !173, i32 0, i32 0} ; [ DW_TAG_subroutine_type ]
!173 = metadata !{metadata !149, metadata !59, metadata !53}
!174 = metadata !{i32 786478, i32 0, metadata !31, metadata !"operator=", metadata !"operator=", metadata !"_ZN11ap_int_baseILi32ELb0ELb1EEaSEj", metadata !32, i32 1612, metadata !175, i1 false, i1 false, i32 0, i32 0, null, i32 256, i1 false, null, null, i32 0, metadata !44, i32 1612} ; [ DW_TAG_subprogram ]
!175 = metadata !{i32 786453, i32 0, metadata !"", i32 0, i32 0, i64 0, i64 0, i64 0, i32 0, null, metadata !176, i32 0, i32 0} ; [ DW_TAG_subroutine_type ]
!176 = metadata !{metadata !149, metadata !59, metadata !99}
!177 = metadata !{i32 786478, i32 0, metadata !31, metadata !"operator=", metadata !"operator=", metadata !"_ZN11ap_int_baseILi32ELb0ELb1EEaSEx", metadata !32, i32 1613, metadata !178, i1 false, i1 false, i32 0, i32 0, null, i32 256, i1 false, null, null, i32 0, metadata !44, i32 1613} ; [ DW_TAG_subprogram ]
!178 = metadata !{i32 786453, i32 0, metadata !"", i32 0, i32 0, i64 0, i64 0, i64 0, i32 0, null, metadata !179, i32 0, i32 0} ; [ DW_TAG_subroutine_type ]
!179 = metadata !{metadata !149, metadata !59, metadata !111}
!180 = metadata !{i32 786478, i32 0, metadata !31, metadata !"operator=", metadata !"operator=", metadata !"_ZN11ap_int_baseILi32ELb0ELb1EEaSEy", metadata !32, i32 1614, metadata !181, i1 false, i1 false, i32 0, i32 0, null, i32 256, i1 false, null, null, i32 0, metadata !44, i32 1614} ; [ DW_TAG_subprogram ]
!181 = metadata !{i32 786453, i32 0, metadata !"", i32 0, i32 0, i64 0, i64 0, i64 0, i32 0, null, metadata !182, i32 0, i32 0} ; [ DW_TAG_subroutine_type ]
!182 = metadata !{metadata !149, metadata !59, metadata !116}
!183 = metadata !{i32 786478, i32 0, metadata !31, metadata !"operator unsigned int", metadata !"operator unsigned int", metadata !"_ZNK11ap_int_baseILi32ELb0ELb1EEcvjEv", metadata !32, i32 1652, metadata !184, i1 false, i1 false, i32 0, i32 0, null, i32 256, i1 false, null, null, i32 0, metadata !44, i32 1652} ; [ DW_TAG_subprogram ]
!184 = metadata !{i32 786453, i32 0, metadata !"", i32 0, i32 0, i64 0, i64 0, i64 0, i32 0, null, metadata !185, i32 0, i32 0} ; [ DW_TAG_subroutine_type ]
!185 = metadata !{metadata !186, metadata !192}
!186 = metadata !{i32 786454, metadata !31, metadata !"RetType", metadata !32, i32 1401, i64 0, i64 0, i64 0, i32 0, metadata !187} ; [ DW_TAG_typedef ]
!187 = metadata !{i32 786454, metadata !188, metadata !"Type", metadata !32, i32 1387, i64 0, i64 0, i64 0, i32 0, metadata !99} ; [ DW_TAG_typedef ]
!188 = metadata !{i32 786434, null, metadata !"retval<4, false>", metadata !32, i32 1386, i64 8, i64 8, i32 0, i32 0, null, metadata !189, i32 0, null, metadata !190} ; [ DW_TAG_class_type ]
!189 = metadata !{i32 0}
!190 = metadata !{metadata !191, metadata !54}
!191 = metadata !{i32 786480, null, metadata !"_AP_N", metadata !53, i64 4, null, i32 0, i32 0} ; [ DW_TAG_template_value_parameter ]
!192 = metadata !{i32 786447, i32 0, metadata !"", i32 0, i32 0, i64 64, i64 64, i64 0, i32 64, metadata !64} ; [ DW_TAG_pointer_type ]
!193 = metadata !{i32 786478, i32 0, metadata !31, metadata !"to_bool", metadata !"to_bool", metadata !"_ZNK11ap_int_baseILi32ELb0ELb1EE7to_boolEv", metadata !32, i32 1658, metadata !194, i1 false, i1 false, i32 0, i32 0, null, i32 256, i1 false, null, null, i32 0, metadata !44, i32 1658} ; [ DW_TAG_subprogram ]
!194 = metadata !{i32 786453, i32 0, metadata !"", i32 0, i32 0, i64 0, i64 0, i64 0, i32 0, null, metadata !195, i32 0, i32 0} ; [ DW_TAG_subroutine_type ]
!195 = metadata !{metadata !55, metadata !192}
!196 = metadata !{i32 786478, i32 0, metadata !31, metadata !"to_uchar", metadata !"to_uchar", metadata !"_ZNK11ap_int_baseILi32ELb0ELb1EE8to_ucharEv", metadata !32, i32 1659, metadata !194, i1 false, i1 false, i32 0, i32 0, null, i32 256, i1 false, null, null, i32 0, metadata !44, i32 1659} ; [ DW_TAG_subprogram ]
!197 = metadata !{i32 786478, i32 0, metadata !31, metadata !"to_char", metadata !"to_char", metadata !"_ZNK11ap_int_baseILi32ELb0ELb1EE7to_charEv", metadata !32, i32 1660, metadata !194, i1 false, i1 false, i32 0, i32 0, null, i32 256, i1 false, null, null, i32 0, metadata !44, i32 1660} ; [ DW_TAG_subprogram ]
!198 = metadata !{i32 786478, i32 0, metadata !31, metadata !"to_ushort", metadata !"to_ushort", metadata !"_ZNK11ap_int_baseILi32ELb0ELb1EE9to_ushortEv", metadata !32, i32 1661, metadata !194, i1 false, i1 false, i32 0, i32 0, null, i32 256, i1 false, null, null, i32 0, metadata !44, i32 1661} ; [ DW_TAG_subprogram ]
!199 = metadata !{i32 786478, i32 0, metadata !31, metadata !"to_short", metadata !"to_short", metadata !"_ZNK11ap_int_baseILi32ELb0ELb1EE8to_shortEv", metadata !32, i32 1662, metadata !194, i1 false, i1 false, i32 0, i32 0, null, i32 256, i1 false, null, null, i32 0, metadata !44, i32 1662} ; [ DW_TAG_subprogram ]
!200 = metadata !{i32 786478, i32 0, metadata !31, metadata !"to_int", metadata !"to_int", metadata !"_ZNK11ap_int_baseILi32ELb0ELb1EE6to_intEv", metadata !32, i32 1663, metadata !201, i1 false, i1 false, i32 0, i32 0, null, i32 256, i1 false, null, null, i32 0, metadata !44, i32 1663} ; [ DW_TAG_subprogram ]
!201 = metadata !{i32 786453, i32 0, metadata !"", i32 0, i32 0, i64 0, i64 0, i64 0, i32 0, null, metadata !202, i32 0, i32 0} ; [ DW_TAG_subroutine_type ]
!202 = metadata !{metadata !53, metadata !192}
!203 = metadata !{i32 786478, i32 0, metadata !31, metadata !"to_uint", metadata !"to_uint", metadata !"_ZNK11ap_int_baseILi32ELb0ELb1EE7to_uintEv", metadata !32, i32 1664, metadata !204, i1 false, i1 false, i32 0, i32 0, null, i32 256, i1 false, null, null, i32 0, metadata !44, i32 1664} ; [ DW_TAG_subprogram ]
!204 = metadata !{i32 786453, i32 0, metadata !"", i32 0, i32 0, i64 0, i64 0, i64 0, i32 0, null, metadata !205, i32 0, i32 0} ; [ DW_TAG_subroutine_type ]
!205 = metadata !{metadata !99, metadata !192}
!206 = metadata !{i32 786478, i32 0, metadata !31, metadata !"to_long", metadata !"to_long", metadata !"_ZNK11ap_int_baseILi32ELb0ELb1EE7to_longEv", metadata !32, i32 1665, metadata !207, i1 false, i1 false, i32 0, i32 0, null, i32 256, i1 false, null, null, i32 0, metadata !44, i32 1665} ; [ DW_TAG_subprogram ]
!207 = metadata !{i32 786453, i32 0, metadata !"", i32 0, i32 0, i64 0, i64 0, i64 0, i32 0, null, metadata !208, i32 0, i32 0} ; [ DW_TAG_subroutine_type ]
!208 = metadata !{metadata !103, metadata !192}
!209 = metadata !{i32 786478, i32 0, metadata !31, metadata !"to_ulong", metadata !"to_ulong", metadata !"_ZNK11ap_int_baseILi32ELb0ELb1EE8to_ulongEv", metadata !32, i32 1666, metadata !210, i1 false, i1 false, i32 0, i32 0, null, i32 256, i1 false, null, null, i32 0, metadata !44, i32 1666} ; [ DW_TAG_subprogram ]
!210 = metadata !{i32 786453, i32 0, metadata !"", i32 0, i32 0, i64 0, i64 0, i64 0, i32 0, null, metadata !211, i32 0, i32 0} ; [ DW_TAG_subroutine_type ]
!211 = metadata !{metadata !107, metadata !192}
!212 = metadata !{i32 786478, i32 0, metadata !31, metadata !"to_int64", metadata !"to_int64", metadata !"_ZNK11ap_int_baseILi32ELb0ELb1EE8to_int64Ev", metadata !32, i32 1667, metadata !213, i1 false, i1 false, i32 0, i32 0, null, i32 256, i1 false, null, null, i32 0, metadata !44, i32 1667} ; [ DW_TAG_subprogram ]
!213 = metadata !{i32 786453, i32 0, metadata !"", i32 0, i32 0, i64 0, i64 0, i64 0, i32 0, null, metadata !214, i32 0, i32 0} ; [ DW_TAG_subroutine_type ]
!214 = metadata !{metadata !111, metadata !192}
!215 = metadata !{i32 786478, i32 0, metadata !31, metadata !"to_uint64", metadata !"to_uint64", metadata !"_ZNK11ap_int_baseILi32ELb0ELb1EE9to_uint64Ev", metadata !32, i32 1668, metadata !216, i1 false, i1 false, i32 0, i32 0, null, i32 256, i1 false, null, null, i32 0, metadata !44, i32 1668} ; [ DW_TAG_subprogram ]
!216 = metadata !{i32 786453, i32 0, metadata !"", i32 0, i32 0, i64 0, i64 0, i64 0, i32 0, null, metadata !217, i32 0, i32 0} ; [ DW_TAG_subroutine_type ]
!217 = metadata !{metadata !116, metadata !192}
!218 = metadata !{i32 786478, i32 0, metadata !31, metadata !"to_double", metadata !"to_double", metadata !"_ZNK11ap_int_baseILi32ELb0ELb1EE9to_doubleEv", metadata !32, i32 1669, metadata !219, i1 false, i1 false, i32 0, i32 0, null, i32 256, i1 false, null, null, i32 0, metadata !44, i32 1669} ; [ DW_TAG_subprogram ]
!219 = metadata !{i32 786453, i32 0, metadata !"", i32 0, i32 0, i64 0, i64 0, i64 0, i32 0, null, metadata !220, i32 0, i32 0} ; [ DW_TAG_subroutine_type ]
!220 = metadata !{metadata !125, metadata !192}
!221 = metadata !{i32 786478, i32 0, metadata !31, metadata !"length", metadata !"length", metadata !"_ZNK11ap_int_baseILi32ELb0ELb1EE6lengthEv", metadata !32, i32 1682, metadata !201, i1 false, i1 false, i32 0, i32 0, null, i32 256, i1 false, null, null, i32 0, metadata !44, i32 1682} ; [ DW_TAG_subprogram ]
!222 = metadata !{i32 786478, i32 0, metadata !31, metadata !"length", metadata !"length", metadata !"_ZNVK11ap_int_baseILi32ELb0ELb1EE6lengthEv", metadata !32, i32 1683, metadata !223, i1 false, i1 false, i32 0, i32 0, null, i32 256, i1 false, null, null, i32 0, metadata !44, i32 1683} ; [ DW_TAG_subprogram ]
!223 = metadata !{i32 786453, i32 0, metadata !"", i32 0, i32 0, i64 0, i64 0, i64 0, i32 0, null, metadata !224, i32 0, i32 0} ; [ DW_TAG_subroutine_type ]
!224 = metadata !{metadata !53, metadata !225}
!225 = metadata !{i32 786447, i32 0, metadata !"", i32 0, i32 0, i64 64, i64 64, i64 0, i32 64, metadata !72} ; [ DW_TAG_pointer_type ]
!226 = metadata !{i32 786478, i32 0, metadata !31, metadata !"reverse", metadata !"reverse", metadata !"_ZN11ap_int_baseILi32ELb0ELb1EE7reverseEv", metadata !32, i32 1688, metadata !227, i1 false, i1 false, i32 0, i32 0, null, i32 256, i1 false, null, null, i32 0, metadata !44, i32 1688} ; [ DW_TAG_subprogram ]
!227 = metadata !{i32 786453, i32 0, metadata !"", i32 0, i32 0, i64 0, i64 0, i64 0, i32 0, null, metadata !228, i32 0, i32 0} ; [ DW_TAG_subroutine_type ]
!228 = metadata !{metadata !149, metadata !59}
!229 = metadata !{i32 786478, i32 0, metadata !31, metadata !"iszero", metadata !"iszero", metadata !"_ZNK11ap_int_baseILi32ELb0ELb1EE6iszeroEv", metadata !32, i32 1694, metadata !194, i1 false, i1 false, i32 0, i32 0, null, i32 256, i1 false, null, null, i32 0, metadata !44, i32 1694} ; [ DW_TAG_subprogram ]
!230 = metadata !{i32 786478, i32 0, metadata !31, metadata !"is_zero", metadata !"is_zero", metadata !"_ZNK11ap_int_baseILi32ELb0ELb1EE7is_zeroEv", metadata !32, i32 1699, metadata !194, i1 false, i1 false, i32 0, i32 0, null, i32 256, i1 false, null, null, i32 0, metadata !44, i32 1699} ; [ DW_TAG_subprogram ]
!231 = metadata !{i32 786478, i32 0, metadata !31, metadata !"sign", metadata !"sign", metadata !"_ZNK11ap_int_baseILi32ELb0ELb1EE4signEv", metadata !32, i32 1704, metadata !194, i1 false, i1 false, i32 0, i32 0, null, i32 256, i1 false, null, null, i32 0, metadata !44, i32 1704} ; [ DW_TAG_subprogram ]
!232 = metadata !{i32 786478, i32 0, metadata !31, metadata !"clear", metadata !"clear", metadata !"_ZN11ap_int_baseILi32ELb0ELb1EE5clearEi", metadata !32, i32 1712, metadata !94, i1 false, i1 false, i32 0, i32 0, null, i32 256, i1 false, null, null, i32 0, metadata !44, i32 1712} ; [ DW_TAG_subprogram ]
!233 = metadata !{i32 786478, i32 0, metadata !31, metadata !"invert", metadata !"invert", metadata !"_ZN11ap_int_baseILi32ELb0ELb1EE6invertEi", metadata !32, i32 1718, metadata !94, i1 false, i1 false, i32 0, i32 0, null, i32 256, i1 false, null, null, i32 0, metadata !44, i32 1718} ; [ DW_TAG_subprogram ]
!234 = metadata !{i32 786478, i32 0, metadata !31, metadata !"test", metadata !"test", metadata !"_ZNK11ap_int_baseILi32ELb0ELb1EE4testEi", metadata !32, i32 1726, metadata !235, i1 false, i1 false, i32 0, i32 0, null, i32 256, i1 false, null, null, i32 0, metadata !44, i32 1726} ; [ DW_TAG_subprogram ]
!235 = metadata !{i32 786453, i32 0, metadata !"", i32 0, i32 0, i64 0, i64 0, i64 0, i32 0, null, metadata !236, i32 0, i32 0} ; [ DW_TAG_subroutine_type ]
!236 = metadata !{metadata !55, metadata !192, metadata !53}
!237 = metadata !{i32 786478, i32 0, metadata !31, metadata !"set", metadata !"set", metadata !"_ZN11ap_int_baseILi32ELb0ELb1EE3setEi", metadata !32, i32 1732, metadata !94, i1 false, i1 false, i32 0, i32 0, null, i32 256, i1 false, null, null, i32 0, metadata !44, i32 1732} ; [ DW_TAG_subprogram ]
!238 = metadata !{i32 786478, i32 0, metadata !31, metadata !"set", metadata !"set", metadata !"_ZN11ap_int_baseILi32ELb0ELb1EE3setEib", metadata !32, i32 1738, metadata !239, i1 false, i1 false, i32 0, i32 0, null, i32 256, i1 false, null, null, i32 0, metadata !44, i32 1738} ; [ DW_TAG_subprogram ]
!239 = metadata !{i32 786453, i32 0, metadata !"", i32 0, i32 0, i64 0, i64 0, i64 0, i32 0, null, metadata !240, i32 0, i32 0} ; [ DW_TAG_subroutine_type ]
!240 = metadata !{null, metadata !59, metadata !53, metadata !55}
!241 = metadata !{i32 786478, i32 0, metadata !31, metadata !"lrotate", metadata !"lrotate", metadata !"_ZN11ap_int_baseILi32ELb0ELb1EE7lrotateEi", metadata !32, i32 1745, metadata !94, i1 false, i1 false, i32 0, i32 0, null, i32 256, i1 false, null, null, i32 0, metadata !44, i32 1745} ; [ DW_TAG_subprogram ]
!242 = metadata !{i32 786478, i32 0, metadata !31, metadata !"rrotate", metadata !"rrotate", metadata !"_ZN11ap_int_baseILi32ELb0ELb1EE7rrotateEi", metadata !32, i32 1754, metadata !94, i1 false, i1 false, i32 0, i32 0, null, i32 256, i1 false, null, null, i32 0, metadata !44, i32 1754} ; [ DW_TAG_subprogram ]
!243 = metadata !{i32 786478, i32 0, metadata !31, metadata !"set_bit", metadata !"set_bit", metadata !"_ZN11ap_int_baseILi32ELb0ELb1EE7set_bitEib", metadata !32, i32 1762, metadata !239, i1 false, i1 false, i32 0, i32 0, null, i32 256, i1 false, null, null, i32 0, metadata !44, i32 1762} ; [ DW_TAG_subprogram ]
!244 = metadata !{i32 786478, i32 0, metadata !31, metadata !"get_bit", metadata !"get_bit", metadata !"_ZNK11ap_int_baseILi32ELb0ELb1EE7get_bitEi", metadata !32, i32 1767, metadata !235, i1 false, i1 false, i32 0, i32 0, null, i32 256, i1 false, null, null, i32 0, metadata !44, i32 1767} ; [ DW_TAG_subprogram ]
!245 = metadata !{i32 786478, i32 0, metadata !31, metadata !"b_not", metadata !"b_not", metadata !"_ZN11ap_int_baseILi32ELb0ELb1EE5b_notEv", metadata !32, i32 1772, metadata !57, i1 false, i1 false, i32 0, i32 0, null, i32 256, i1 false, null, null, i32 0, metadata !44, i32 1772} ; [ DW_TAG_subprogram ]
!246 = metadata !{i32 786478, i32 0, metadata !31, metadata !"countLeadingZeros", metadata !"countLeadingZeros", metadata !"_ZN11ap_int_baseILi32ELb0ELb1EE17countLeadingZerosEv", metadata !32, i32 1779, metadata !247, i1 false, i1 false, i32 0, i32 0, null, i32 256, i1 false, null, null, i32 0, metadata !44, i32 1779} ; [ DW_TAG_subprogram ]
!247 = metadata !{i32 786453, i32 0, metadata !"", i32 0, i32 0, i64 0, i64 0, i64 0, i32 0, null, metadata !248, i32 0, i32 0} ; [ DW_TAG_subroutine_type ]
!248 = metadata !{metadata !53, metadata !59}
!249 = metadata !{i32 786478, i32 0, metadata !31, metadata !"operator++", metadata !"operator++", metadata !"_ZN11ap_int_baseILi32ELb0ELb1EEppEv", metadata !32, i32 1836, metadata !227, i1 false, i1 false, i32 0, i32 0, null, i32 256, i1 false, null, null, i32 0, metadata !44, i32 1836} ; [ DW_TAG_subprogram ]
!250 = metadata !{i32 786478, i32 0, metadata !31, metadata !"operator--", metadata !"operator--", metadata !"_ZN11ap_int_baseILi32ELb0ELb1EEmmEv", metadata !32, i32 1840, metadata !227, i1 false, i1 false, i32 0, i32 0, null, i32 256, i1 false, null, null, i32 0, metadata !44, i32 1840} ; [ DW_TAG_subprogram ]
!251 = metadata !{i32 786478, i32 0, metadata !31, metadata !"operator++", metadata !"operator++", metadata !"_ZN11ap_int_baseILi32ELb0ELb1EEppEi", metadata !32, i32 1848, metadata !252, i1 false, i1 false, i32 0, i32 0, null, i32 256, i1 false, null, null, i32 0, metadata !44, i32 1848} ; [ DW_TAG_subprogram ]
!252 = metadata !{i32 786453, i32 0, metadata !"", i32 0, i32 0, i64 0, i64 0, i64 0, i32 0, null, metadata !253, i32 0, i32 0} ; [ DW_TAG_subroutine_type ]
!253 = metadata !{metadata !64, metadata !59, metadata !53}
!254 = metadata !{i32 786478, i32 0, metadata !31, metadata !"operator--", metadata !"operator--", metadata !"_ZN11ap_int_baseILi32ELb0ELb1EEmmEi", metadata !32, i32 1853, metadata !252, i1 false, i1 false, i32 0, i32 0, null, i32 256, i1 false, null, null, i32 0, metadata !44, i32 1853} ; [ DW_TAG_subprogram ]
!255 = metadata !{i32 786478, i32 0, metadata !31, metadata !"operator+", metadata !"operator+", metadata !"_ZNK11ap_int_baseILi32ELb0ELb1EEpsEv", metadata !32, i32 1862, metadata !256, i1 false, i1 false, i32 0, i32 0, null, i32 256, i1 false, null, null, i32 0, metadata !44, i32 1862} ; [ DW_TAG_subprogram ]
!256 = metadata !{i32 786453, i32 0, metadata !"", i32 0, i32 0, i64 0, i64 0, i64 0, i32 0, null, metadata !257, i32 0, i32 0} ; [ DW_TAG_subroutine_type ]
!257 = metadata !{metadata !31, metadata !192}
!258 = metadata !{i32 786478, i32 0, metadata !31, metadata !"operator!", metadata !"operator!", metadata !"_ZNK11ap_int_baseILi32ELb0ELb1EEntEv", metadata !32, i32 1868, metadata !194, i1 false, i1 false, i32 0, i32 0, null, i32 256, i1 false, null, null, i32 0, metadata !44, i32 1868} ; [ DW_TAG_subprogram ]
!259 = metadata !{i32 786478, i32 0, metadata !31, metadata !"operator-", metadata !"operator-", metadata !"_ZNK11ap_int_baseILi32ELb0ELb1EEngEv", metadata !32, i32 1873, metadata !260, i1 false, i1 false, i32 0, i32 0, null, i32 256, i1 false, null, null, i32 0, metadata !44, i32 1873} ; [ DW_TAG_subprogram ]
!260 = metadata !{i32 786453, i32 0, metadata !"", i32 0, i32 0, i64 0, i64 0, i64 0, i32 0, null, metadata !261, i32 0, i32 0} ; [ DW_TAG_subroutine_type ]
!261 = metadata !{metadata !262, metadata !192}
!262 = metadata !{i32 786434, null, metadata !"ap_int_base<33, true, true>", metadata !32, i32 1396, i64 64, i64 64, i32 0, i32 0, null, metadata !263, i32 0, null, metadata !547} ; [ DW_TAG_class_type ]
!263 = metadata !{metadata !264, metadata !276, metadata !280, metadata !288, metadata !294, metadata !297, metadata !300, metadata !303, metadata !306, metadata !309, metadata !312, metadata !315, metadata !318, metadata !321, metadata !324, metadata !327, metadata !330, metadata !333, metadata !336, metadata !339, metadata !343, metadata !346, metadata !349, metadata !350, metadata !354, metadata !357, metadata !360, metadata !363, metadata !366, metadata !369, metadata !372, metadata !375, metadata !378, metadata !381, metadata !384, metadata !387, metadata !396, metadata !399, metadata !400, metadata !401, metadata !402, metadata !403, metadata !406, metadata !409, metadata !412, metadata !415, metadata !418, metadata !421, metadata !424, metadata !425, metadata !429, metadata !432, metadata !433, metadata !434, metadata !435, metadata !436, metadata !437, metadata !440, metadata !441, metadata !444, metadata !445, metadata !446, metadata !447, metadata !448, metadata !449, metadata !452, metadata !453, metadata !454, metadata !457, metadata !458, metadata !461, metadata !462, metadata !466, metadata !470, metadata !471, metadata !474, metadata !475, metadata !514, metadata !515, metadata !516, metadata !517, metadata !520, metadata !521, metadata !522, metadata !523, metadata !524, metadata !525, metadata !526, metadata !527, metadata !528, metadata !529, metadata !530, metadata !531, metadata !541, metadata !544}
!264 = metadata !{i32 786460, metadata !262, null, metadata !32, i32 0, i64 0, i64 0, i64 0, i32 0, metadata !265} ; [ DW_TAG_inheritance ]
!265 = metadata !{i32 786434, null, metadata !"ssdm_int<33 + 1024 * 0, true>", metadata !36, i32 35, i64 64, i64 64, i32 0, i32 0, null, metadata !266, i32 0, null, metadata !273} ; [ DW_TAG_class_type ]
!266 = metadata !{metadata !267, metadata !269}
!267 = metadata !{i32 786445, metadata !265, metadata !"V", metadata !36, i32 35, i64 33, i64 64, i64 0, i32 0, metadata !268} ; [ DW_TAG_member ]
!268 = metadata !{i32 786468, null, metadata !"int33", null, i32 0, i64 33, i64 64, i64 0, i32 0, i32 5} ; [ DW_TAG_base_type ]
!269 = metadata !{i32 786478, i32 0, metadata !265, metadata !"ssdm_int", metadata !"ssdm_int", metadata !"", metadata !36, i32 35, metadata !270, i1 false, i1 false, i32 0, i32 0, null, i32 256, i1 false, null, null, i32 0, metadata !44, i32 35} ; [ DW_TAG_subprogram ]
!270 = metadata !{i32 786453, i32 0, metadata !"", i32 0, i32 0, i64 0, i64 0, i64 0, i32 0, null, metadata !271, i32 0, i32 0} ; [ DW_TAG_subroutine_type ]
!271 = metadata !{null, metadata !272}
!272 = metadata !{i32 786447, i32 0, metadata !"", i32 0, i32 0, i64 64, i64 64, i64 0, i32 64, metadata !265} ; [ DW_TAG_pointer_type ]
!273 = metadata !{metadata !274, metadata !275}
!274 = metadata !{i32 786480, null, metadata !"_AP_N", metadata !53, i64 33, null, i32 0, i32 0} ; [ DW_TAG_template_value_parameter ]
!275 = metadata !{i32 786480, null, metadata !"_AP_S", metadata !55, i64 1, null, i32 0, i32 0} ; [ DW_TAG_template_value_parameter ]
!276 = metadata !{i32 786478, i32 0, metadata !262, metadata !"ap_int_base", metadata !"ap_int_base", metadata !"", metadata !32, i32 1437, metadata !277, i1 false, i1 false, i32 0, i32 0, null, i32 256, i1 false, null, null, i32 0, metadata !44, i32 1437} ; [ DW_TAG_subprogram ]
!277 = metadata !{i32 786453, i32 0, metadata !"", i32 0, i32 0, i64 0, i64 0, i64 0, i32 0, null, metadata !278, i32 0, i32 0} ; [ DW_TAG_subroutine_type ]
!278 = metadata !{null, metadata !279}
!279 = metadata !{i32 786447, i32 0, metadata !"", i32 0, i32 0, i64 64, i64 64, i64 0, i32 64, metadata !262} ; [ DW_TAG_pointer_type ]
!280 = metadata !{i32 786478, i32 0, metadata !262, metadata !"ap_int_base<33, true>", metadata !"ap_int_base<33, true>", metadata !"", metadata !32, i32 1449, metadata !281, i1 false, i1 false, i32 0, i32 0, null, i32 256, i1 false, null, metadata !285, i32 0, metadata !44, i32 1449} ; [ DW_TAG_subprogram ]
!281 = metadata !{i32 786453, i32 0, metadata !"", i32 0, i32 0, i64 0, i64 0, i64 0, i32 0, null, metadata !282, i32 0, i32 0} ; [ DW_TAG_subroutine_type ]
!282 = metadata !{null, metadata !279, metadata !283}
!283 = metadata !{i32 786448, null, null, null, i32 0, i64 0, i64 0, i64 0, i32 0, metadata !284} ; [ DW_TAG_reference_type ]
!284 = metadata !{i32 786470, null, metadata !"", null, i32 0, i64 0, i64 0, i64 0, i32 0, metadata !262} ; [ DW_TAG_const_type ]
!285 = metadata !{metadata !286, metadata !287}
!286 = metadata !{i32 786480, null, metadata !"_AP_W2", metadata !53, i64 33, null, i32 0, i32 0} ; [ DW_TAG_template_value_parameter ]
!287 = metadata !{i32 786480, null, metadata !"_AP_S2", metadata !55, i64 1, null, i32 0, i32 0} ; [ DW_TAG_template_value_parameter ]
!288 = metadata !{i32 786478, i32 0, metadata !262, metadata !"ap_int_base<33, true>", metadata !"ap_int_base<33, true>", metadata !"", metadata !32, i32 1452, metadata !289, i1 false, i1 false, i32 0, i32 0, null, i32 256, i1 false, null, metadata !285, i32 0, metadata !44, i32 1452} ; [ DW_TAG_subprogram ]
!289 = metadata !{i32 786453, i32 0, metadata !"", i32 0, i32 0, i64 0, i64 0, i64 0, i32 0, null, metadata !290, i32 0, i32 0} ; [ DW_TAG_subroutine_type ]
!290 = metadata !{null, metadata !279, metadata !291}
!291 = metadata !{i32 786448, null, null, null, i32 0, i64 0, i64 0, i64 0, i32 0, metadata !292} ; [ DW_TAG_reference_type ]
!292 = metadata !{i32 786470, null, metadata !"", null, i32 0, i64 0, i64 0, i64 0, i32 0, metadata !293} ; [ DW_TAG_const_type ]
!293 = metadata !{i32 786485, null, metadata !"", null, i32 0, i64 0, i64 0, i64 0, i32 0, metadata !262} ; [ DW_TAG_volatile_type ]
!294 = metadata !{i32 786478, i32 0, metadata !262, metadata !"ap_int_base", metadata !"ap_int_base", metadata !"", metadata !32, i32 1459, metadata !295, i1 false, i1 false, i32 0, i32 0, null, i32 384, i1 false, null, null, i32 0, metadata !44, i32 1459} ; [ DW_TAG_subprogram ]
!295 = metadata !{i32 786453, i32 0, metadata !"", i32 0, i32 0, i64 0, i64 0, i64 0, i32 0, null, metadata !296, i32 0, i32 0} ; [ DW_TAG_subroutine_type ]
!296 = metadata !{null, metadata !279, metadata !55}
!297 = metadata !{i32 786478, i32 0, metadata !262, metadata !"ap_int_base", metadata !"ap_int_base", metadata !"", metadata !32, i32 1460, metadata !298, i1 false, i1 false, i32 0, i32 0, null, i32 384, i1 false, null, null, i32 0, metadata !44, i32 1460} ; [ DW_TAG_subprogram ]
!298 = metadata !{i32 786453, i32 0, metadata !"", i32 0, i32 0, i64 0, i64 0, i64 0, i32 0, null, metadata !299, i32 0, i32 0} ; [ DW_TAG_subroutine_type ]
!299 = metadata !{null, metadata !279, metadata !80}
!300 = metadata !{i32 786478, i32 0, metadata !262, metadata !"ap_int_base", metadata !"ap_int_base", metadata !"", metadata !32, i32 1461, metadata !301, i1 false, i1 false, i32 0, i32 0, null, i32 384, i1 false, null, null, i32 0, metadata !44, i32 1461} ; [ DW_TAG_subprogram ]
!301 = metadata !{i32 786453, i32 0, metadata !"", i32 0, i32 0, i64 0, i64 0, i64 0, i32 0, null, metadata !302, i32 0, i32 0} ; [ DW_TAG_subroutine_type ]
!302 = metadata !{null, metadata !279, metadata !84}
!303 = metadata !{i32 786478, i32 0, metadata !262, metadata !"ap_int_base", metadata !"ap_int_base", metadata !"", metadata !32, i32 1462, metadata !304, i1 false, i1 false, i32 0, i32 0, null, i32 384, i1 false, null, null, i32 0, metadata !44, i32 1462} ; [ DW_TAG_subprogram ]
!304 = metadata !{i32 786453, i32 0, metadata !"", i32 0, i32 0, i64 0, i64 0, i64 0, i32 0, null, metadata !305, i32 0, i32 0} ; [ DW_TAG_subroutine_type ]
!305 = metadata !{null, metadata !279, metadata !88}
!306 = metadata !{i32 786478, i32 0, metadata !262, metadata !"ap_int_base", metadata !"ap_int_base", metadata !"", metadata !32, i32 1463, metadata !307, i1 false, i1 false, i32 0, i32 0, null, i32 384, i1 false, null, null, i32 0, metadata !44, i32 1463} ; [ DW_TAG_subprogram ]
!307 = metadata !{i32 786453, i32 0, metadata !"", i32 0, i32 0, i64 0, i64 0, i64 0, i32 0, null, metadata !308, i32 0, i32 0} ; [ DW_TAG_subroutine_type ]
!308 = metadata !{null, metadata !279, metadata !92}
!309 = metadata !{i32 786478, i32 0, metadata !262, metadata !"ap_int_base", metadata !"ap_int_base", metadata !"", metadata !32, i32 1464, metadata !310, i1 false, i1 false, i32 0, i32 0, null, i32 384, i1 false, null, null, i32 0, metadata !44, i32 1464} ; [ DW_TAG_subprogram ]
!310 = metadata !{i32 786453, i32 0, metadata !"", i32 0, i32 0, i64 0, i64 0, i64 0, i32 0, null, metadata !311, i32 0, i32 0} ; [ DW_TAG_subroutine_type ]
!311 = metadata !{null, metadata !279, metadata !53}
!312 = metadata !{i32 786478, i32 0, metadata !262, metadata !"ap_int_base", metadata !"ap_int_base", metadata !"", metadata !32, i32 1465, metadata !313, i1 false, i1 false, i32 0, i32 0, null, i32 384, i1 false, null, null, i32 0, metadata !44, i32 1465} ; [ DW_TAG_subprogram ]
!313 = metadata !{i32 786453, i32 0, metadata !"", i32 0, i32 0, i64 0, i64 0, i64 0, i32 0, null, metadata !314, i32 0, i32 0} ; [ DW_TAG_subroutine_type ]
!314 = metadata !{null, metadata !279, metadata !99}
!315 = metadata !{i32 786478, i32 0, metadata !262, metadata !"ap_int_base", metadata !"ap_int_base", metadata !"", metadata !32, i32 1466, metadata !316, i1 false, i1 false, i32 0, i32 0, null, i32 384, i1 false, null, null, i32 0, metadata !44, i32 1466} ; [ DW_TAG_subprogram ]
!316 = metadata !{i32 786453, i32 0, metadata !"", i32 0, i32 0, i64 0, i64 0, i64 0, i32 0, null, metadata !317, i32 0, i32 0} ; [ DW_TAG_subroutine_type ]
!317 = metadata !{null, metadata !279, metadata !103}
!318 = metadata !{i32 786478, i32 0, metadata !262, metadata !"ap_int_base", metadata !"ap_int_base", metadata !"", metadata !32, i32 1467, metadata !319, i1 false, i1 false, i32 0, i32 0, null, i32 384, i1 false, null, null, i32 0, metadata !44, i32 1467} ; [ DW_TAG_subprogram ]
!319 = metadata !{i32 786453, i32 0, metadata !"", i32 0, i32 0, i64 0, i64 0, i64 0, i32 0, null, metadata !320, i32 0, i32 0} ; [ DW_TAG_subroutine_type ]
!320 = metadata !{null, metadata !279, metadata !107}
!321 = metadata !{i32 786478, i32 0, metadata !262, metadata !"ap_int_base", metadata !"ap_int_base", metadata !"", metadata !32, i32 1468, metadata !322, i1 false, i1 false, i32 0, i32 0, null, i32 384, i1 false, null, null, i32 0, metadata !44, i32 1468} ; [ DW_TAG_subprogram ]
!322 = metadata !{i32 786453, i32 0, metadata !"", i32 0, i32 0, i64 0, i64 0, i64 0, i32 0, null, metadata !323, i32 0, i32 0} ; [ DW_TAG_subroutine_type ]
!323 = metadata !{null, metadata !279, metadata !111}
!324 = metadata !{i32 786478, i32 0, metadata !262, metadata !"ap_int_base", metadata !"ap_int_base", metadata !"", metadata !32, i32 1469, metadata !325, i1 false, i1 false, i32 0, i32 0, null, i32 384, i1 false, null, null, i32 0, metadata !44, i32 1469} ; [ DW_TAG_subprogram ]
!325 = metadata !{i32 786453, i32 0, metadata !"", i32 0, i32 0, i64 0, i64 0, i64 0, i32 0, null, metadata !326, i32 0, i32 0} ; [ DW_TAG_subroutine_type ]
!326 = metadata !{null, metadata !279, metadata !116}
!327 = metadata !{i32 786478, i32 0, metadata !262, metadata !"ap_int_base", metadata !"ap_int_base", metadata !"", metadata !32, i32 1470, metadata !328, i1 false, i1 false, i32 0, i32 0, null, i32 384, i1 false, null, null, i32 0, metadata !44, i32 1470} ; [ DW_TAG_subprogram ]
!328 = metadata !{i32 786453, i32 0, metadata !"", i32 0, i32 0, i64 0, i64 0, i64 0, i32 0, null, metadata !329, i32 0, i32 0} ; [ DW_TAG_subroutine_type ]
!329 = metadata !{null, metadata !279, metadata !121}
!330 = metadata !{i32 786478, i32 0, metadata !262, metadata !"ap_int_base", metadata !"ap_int_base", metadata !"", metadata !32, i32 1471, metadata !331, i1 false, i1 false, i32 0, i32 0, null, i32 384, i1 false, null, null, i32 0, metadata !44, i32 1471} ; [ DW_TAG_subprogram ]
!331 = metadata !{i32 786453, i32 0, metadata !"", i32 0, i32 0, i64 0, i64 0, i64 0, i32 0, null, metadata !332, i32 0, i32 0} ; [ DW_TAG_subroutine_type ]
!332 = metadata !{null, metadata !279, metadata !125}
!333 = metadata !{i32 786478, i32 0, metadata !262, metadata !"ap_int_base", metadata !"ap_int_base", metadata !"", metadata !32, i32 1498, metadata !334, i1 false, i1 false, i32 0, i32 0, null, i32 256, i1 false, null, null, i32 0, metadata !44, i32 1498} ; [ DW_TAG_subprogram ]
!334 = metadata !{i32 786453, i32 0, metadata !"", i32 0, i32 0, i64 0, i64 0, i64 0, i32 0, null, metadata !335, i32 0, i32 0} ; [ DW_TAG_subroutine_type ]
!335 = metadata !{null, metadata !279, metadata !129}
!336 = metadata !{i32 786478, i32 0, metadata !262, metadata !"ap_int_base", metadata !"ap_int_base", metadata !"", metadata !32, i32 1505, metadata !337, i1 false, i1 false, i32 0, i32 0, null, i32 256, i1 false, null, null, i32 0, metadata !44, i32 1505} ; [ DW_TAG_subprogram ]
!337 = metadata !{i32 786453, i32 0, metadata !"", i32 0, i32 0, i64 0, i64 0, i64 0, i32 0, null, metadata !338, i32 0, i32 0} ; [ DW_TAG_subroutine_type ]
!338 = metadata !{null, metadata !279, metadata !129, metadata !80}
!339 = metadata !{i32 786478, i32 0, metadata !262, metadata !"read", metadata !"read", metadata !"_ZNV11ap_int_baseILi33ELb1ELb1EE4readEv", metadata !32, i32 1526, metadata !340, i1 false, i1 false, i32 0, i32 0, null, i32 256, i1 false, null, null, i32 0, metadata !44, i32 1526} ; [ DW_TAG_subprogram ]
!340 = metadata !{i32 786453, i32 0, metadata !"", i32 0, i32 0, i64 0, i64 0, i64 0, i32 0, null, metadata !341, i32 0, i32 0} ; [ DW_TAG_subroutine_type ]
!341 = metadata !{metadata !262, metadata !342}
!342 = metadata !{i32 786447, i32 0, metadata !"", i32 0, i32 0, i64 64, i64 64, i64 0, i32 64, metadata !293} ; [ DW_TAG_pointer_type ]
!343 = metadata !{i32 786478, i32 0, metadata !262, metadata !"write", metadata !"write", metadata !"_ZNV11ap_int_baseILi33ELb1ELb1EE5writeERKS0_", metadata !32, i32 1532, metadata !344, i1 false, i1 false, i32 0, i32 0, null, i32 256, i1 false, null, null, i32 0, metadata !44, i32 1532} ; [ DW_TAG_subprogram ]
!344 = metadata !{i32 786453, i32 0, metadata !"", i32 0, i32 0, i64 0, i64 0, i64 0, i32 0, null, metadata !345, i32 0, i32 0} ; [ DW_TAG_subroutine_type ]
!345 = metadata !{null, metadata !342, metadata !283}
!346 = metadata !{i32 786478, i32 0, metadata !262, metadata !"operator=", metadata !"operator=", metadata !"_ZNV11ap_int_baseILi33ELb1ELb1EEaSERVKS0_", metadata !32, i32 1544, metadata !347, i1 false, i1 false, i32 0, i32 0, null, i32 256, i1 false, null, null, i32 0, metadata !44, i32 1544} ; [ DW_TAG_subprogram ]
!347 = metadata !{i32 786453, i32 0, metadata !"", i32 0, i32 0, i64 0, i64 0, i64 0, i32 0, null, metadata !348, i32 0, i32 0} ; [ DW_TAG_subroutine_type ]
!348 = metadata !{null, metadata !342, metadata !291}
!349 = metadata !{i32 786478, i32 0, metadata !262, metadata !"operator=", metadata !"operator=", metadata !"_ZNV11ap_int_baseILi33ELb1ELb1EEaSERKS0_", metadata !32, i32 1553, metadata !344, i1 false, i1 false, i32 0, i32 0, null, i32 256, i1 false, null, null, i32 0, metadata !44, i32 1553} ; [ DW_TAG_subprogram ]
!350 = metadata !{i32 786478, i32 0, metadata !262, metadata !"operator=", metadata !"operator=", metadata !"_ZN11ap_int_baseILi33ELb1ELb1EEaSERVKS0_", metadata !32, i32 1576, metadata !351, i1 false, i1 false, i32 0, i32 0, null, i32 256, i1 false, null, null, i32 0, metadata !44, i32 1576} ; [ DW_TAG_subprogram ]
!351 = metadata !{i32 786453, i32 0, metadata !"", i32 0, i32 0, i64 0, i64 0, i64 0, i32 0, null, metadata !352, i32 0, i32 0} ; [ DW_TAG_subroutine_type ]
!352 = metadata !{metadata !353, metadata !279, metadata !291}
!353 = metadata !{i32 786448, null, null, null, i32 0, i64 0, i64 0, i64 0, i32 0, metadata !262} ; [ DW_TAG_reference_type ]
!354 = metadata !{i32 786478, i32 0, metadata !262, metadata !"operator=", metadata !"operator=", metadata !"_ZN11ap_int_baseILi33ELb1ELb1EEaSERKS0_", metadata !32, i32 1581, metadata !355, i1 false, i1 false, i32 0, i32 0, null, i32 256, i1 false, null, null, i32 0, metadata !44, i32 1581} ; [ DW_TAG_subprogram ]
!355 = metadata !{i32 786453, i32 0, metadata !"", i32 0, i32 0, i64 0, i64 0, i64 0, i32 0, null, metadata !356, i32 0, i32 0} ; [ DW_TAG_subroutine_type ]
!356 = metadata !{metadata !353, metadata !279, metadata !283}
!357 = metadata !{i32 786478, i32 0, metadata !262, metadata !"operator=", metadata !"operator=", metadata !"_ZN11ap_int_baseILi33ELb1ELb1EEaSEPKc", metadata !32, i32 1585, metadata !358, i1 false, i1 false, i32 0, i32 0, null, i32 256, i1 false, null, null, i32 0, metadata !44, i32 1585} ; [ DW_TAG_subprogram ]
!358 = metadata !{i32 786453, i32 0, metadata !"", i32 0, i32 0, i64 0, i64 0, i64 0, i32 0, null, metadata !359, i32 0, i32 0} ; [ DW_TAG_subroutine_type ]
!359 = metadata !{metadata !353, metadata !279, metadata !129}
!360 = metadata !{i32 786478, i32 0, metadata !262, metadata !"set", metadata !"set", metadata !"_ZN11ap_int_baseILi33ELb1ELb1EE3setEPKca", metadata !32, i32 1593, metadata !361, i1 false, i1 false, i32 0, i32 0, null, i32 256, i1 false, null, null, i32 0, metadata !44, i32 1593} ; [ DW_TAG_subprogram ]
!361 = metadata !{i32 786453, i32 0, metadata !"", i32 0, i32 0, i64 0, i64 0, i64 0, i32 0, null, metadata !362, i32 0, i32 0} ; [ DW_TAG_subroutine_type ]
!362 = metadata !{metadata !353, metadata !279, metadata !129, metadata !80}
!363 = metadata !{i32 786478, i32 0, metadata !262, metadata !"operator=", metadata !"operator=", metadata !"_ZN11ap_int_baseILi33ELb1ELb1EEaSEc", metadata !32, i32 1607, metadata !364, i1 false, i1 false, i32 0, i32 0, null, i32 256, i1 false, null, null, i32 0, metadata !44, i32 1607} ; [ DW_TAG_subprogram ]
!364 = metadata !{i32 786453, i32 0, metadata !"", i32 0, i32 0, i64 0, i64 0, i64 0, i32 0, null, metadata !365, i32 0, i32 0} ; [ DW_TAG_subroutine_type ]
!365 = metadata !{metadata !353, metadata !279, metadata !131}
!366 = metadata !{i32 786478, i32 0, metadata !262, metadata !"operator=", metadata !"operator=", metadata !"_ZN11ap_int_baseILi33ELb1ELb1EEaSEh", metadata !32, i32 1608, metadata !367, i1 false, i1 false, i32 0, i32 0, null, i32 256, i1 false, null, null, i32 0, metadata !44, i32 1608} ; [ DW_TAG_subprogram ]
!367 = metadata !{i32 786453, i32 0, metadata !"", i32 0, i32 0, i64 0, i64 0, i64 0, i32 0, null, metadata !368, i32 0, i32 0} ; [ DW_TAG_subroutine_type ]
!368 = metadata !{metadata !353, metadata !279, metadata !84}
!369 = metadata !{i32 786478, i32 0, metadata !262, metadata !"operator=", metadata !"operator=", metadata !"_ZN11ap_int_baseILi33ELb1ELb1EEaSEs", metadata !32, i32 1609, metadata !370, i1 false, i1 false, i32 0, i32 0, null, i32 256, i1 false, null, null, i32 0, metadata !44, i32 1609} ; [ DW_TAG_subprogram ]
!370 = metadata !{i32 786453, i32 0, metadata !"", i32 0, i32 0, i64 0, i64 0, i64 0, i32 0, null, metadata !371, i32 0, i32 0} ; [ DW_TAG_subroutine_type ]
!371 = metadata !{metadata !353, metadata !279, metadata !88}
!372 = metadata !{i32 786478, i32 0, metadata !262, metadata !"operator=", metadata !"operator=", metadata !"_ZN11ap_int_baseILi33ELb1ELb1EEaSEt", metadata !32, i32 1610, metadata !373, i1 false, i1 false, i32 0, i32 0, null, i32 256, i1 false, null, null, i32 0, metadata !44, i32 1610} ; [ DW_TAG_subprogram ]
!373 = metadata !{i32 786453, i32 0, metadata !"", i32 0, i32 0, i64 0, i64 0, i64 0, i32 0, null, metadata !374, i32 0, i32 0} ; [ DW_TAG_subroutine_type ]
!374 = metadata !{metadata !353, metadata !279, metadata !92}
!375 = metadata !{i32 786478, i32 0, metadata !262, metadata !"operator=", metadata !"operator=", metadata !"_ZN11ap_int_baseILi33ELb1ELb1EEaSEi", metadata !32, i32 1611, metadata !376, i1 false, i1 false, i32 0, i32 0, null, i32 256, i1 false, null, null, i32 0, metadata !44, i32 1611} ; [ DW_TAG_subprogram ]
!376 = metadata !{i32 786453, i32 0, metadata !"", i32 0, i32 0, i64 0, i64 0, i64 0, i32 0, null, metadata !377, i32 0, i32 0} ; [ DW_TAG_subroutine_type ]
!377 = metadata !{metadata !353, metadata !279, metadata !53}
!378 = metadata !{i32 786478, i32 0, metadata !262, metadata !"operator=", metadata !"operator=", metadata !"_ZN11ap_int_baseILi33ELb1ELb1EEaSEj", metadata !32, i32 1612, metadata !379, i1 false, i1 false, i32 0, i32 0, null, i32 256, i1 false, null, null, i32 0, metadata !44, i32 1612} ; [ DW_TAG_subprogram ]
!379 = metadata !{i32 786453, i32 0, metadata !"", i32 0, i32 0, i64 0, i64 0, i64 0, i32 0, null, metadata !380, i32 0, i32 0} ; [ DW_TAG_subroutine_type ]
!380 = metadata !{metadata !353, metadata !279, metadata !99}
!381 = metadata !{i32 786478, i32 0, metadata !262, metadata !"operator=", metadata !"operator=", metadata !"_ZN11ap_int_baseILi33ELb1ELb1EEaSEx", metadata !32, i32 1613, metadata !382, i1 false, i1 false, i32 0, i32 0, null, i32 256, i1 false, null, null, i32 0, metadata !44, i32 1613} ; [ DW_TAG_subprogram ]
!382 = metadata !{i32 786453, i32 0, metadata !"", i32 0, i32 0, i64 0, i64 0, i64 0, i32 0, null, metadata !383, i32 0, i32 0} ; [ DW_TAG_subroutine_type ]
!383 = metadata !{metadata !353, metadata !279, metadata !111}
!384 = metadata !{i32 786478, i32 0, metadata !262, metadata !"operator=", metadata !"operator=", metadata !"_ZN11ap_int_baseILi33ELb1ELb1EEaSEy", metadata !32, i32 1614, metadata !385, i1 false, i1 false, i32 0, i32 0, null, i32 256, i1 false, null, null, i32 0, metadata !44, i32 1614} ; [ DW_TAG_subprogram ]
!385 = metadata !{i32 786453, i32 0, metadata !"", i32 0, i32 0, i64 0, i64 0, i64 0, i32 0, null, metadata !386, i32 0, i32 0} ; [ DW_TAG_subroutine_type ]
!386 = metadata !{metadata !353, metadata !279, metadata !116}
!387 = metadata !{i32 786478, i32 0, metadata !262, metadata !"operator long long", metadata !"operator long long", metadata !"_ZNK11ap_int_baseILi33ELb1ELb1EEcvxEv", metadata !32, i32 1652, metadata !388, i1 false, i1 false, i32 0, i32 0, null, i32 256, i1 false, null, null, i32 0, metadata !44, i32 1652} ; [ DW_TAG_subprogram ]
!388 = metadata !{i32 786453, i32 0, metadata !"", i32 0, i32 0, i64 0, i64 0, i64 0, i32 0, null, metadata !389, i32 0, i32 0} ; [ DW_TAG_subroutine_type ]
!389 = metadata !{metadata !390, metadata !395}
!390 = metadata !{i32 786454, metadata !262, metadata !"RetType", metadata !32, i32 1401, i64 0, i64 0, i64 0, i32 0, metadata !391} ; [ DW_TAG_typedef ]
!391 = metadata !{i32 786454, metadata !392, metadata !"Type", metadata !32, i32 1358, i64 0, i64 0, i64 0, i32 0, metadata !111} ; [ DW_TAG_typedef ]
!392 = metadata !{i32 786434, null, metadata !"retval<5, true>", metadata !32, i32 1357, i64 8, i64 8, i32 0, i32 0, null, metadata !189, i32 0, null, metadata !393} ; [ DW_TAG_class_type ]
!393 = metadata !{metadata !394, metadata !275}
!394 = metadata !{i32 786480, null, metadata !"_AP_N", metadata !53, i64 5, null, i32 0, i32 0} ; [ DW_TAG_template_value_parameter ]
!395 = metadata !{i32 786447, i32 0, metadata !"", i32 0, i32 0, i64 64, i64 64, i64 0, i32 64, metadata !284} ; [ DW_TAG_pointer_type ]
!396 = metadata !{i32 786478, i32 0, metadata !262, metadata !"to_bool", metadata !"to_bool", metadata !"_ZNK11ap_int_baseILi33ELb1ELb1EE7to_boolEv", metadata !32, i32 1658, metadata !397, i1 false, i1 false, i32 0, i32 0, null, i32 256, i1 false, null, null, i32 0, metadata !44, i32 1658} ; [ DW_TAG_subprogram ]
!397 = metadata !{i32 786453, i32 0, metadata !"", i32 0, i32 0, i64 0, i64 0, i64 0, i32 0, null, metadata !398, i32 0, i32 0} ; [ DW_TAG_subroutine_type ]
!398 = metadata !{metadata !55, metadata !395}
!399 = metadata !{i32 786478, i32 0, metadata !262, metadata !"to_uchar", metadata !"to_uchar", metadata !"_ZNK11ap_int_baseILi33ELb1ELb1EE8to_ucharEv", metadata !32, i32 1659, metadata !397, i1 false, i1 false, i32 0, i32 0, null, i32 256, i1 false, null, null, i32 0, metadata !44, i32 1659} ; [ DW_TAG_subprogram ]
!400 = metadata !{i32 786478, i32 0, metadata !262, metadata !"to_char", metadata !"to_char", metadata !"_ZNK11ap_int_baseILi33ELb1ELb1EE7to_charEv", metadata !32, i32 1660, metadata !397, i1 false, i1 false, i32 0, i32 0, null, i32 256, i1 false, null, null, i32 0, metadata !44, i32 1660} ; [ DW_TAG_subprogram ]
!401 = metadata !{i32 786478, i32 0, metadata !262, metadata !"to_ushort", metadata !"to_ushort", metadata !"_ZNK11ap_int_baseILi33ELb1ELb1EE9to_ushortEv", metadata !32, i32 1661, metadata !397, i1 false, i1 false, i32 0, i32 0, null, i32 256, i1 false, null, null, i32 0, metadata !44, i32 1661} ; [ DW_TAG_subprogram ]
!402 = metadata !{i32 786478, i32 0, metadata !262, metadata !"to_short", metadata !"to_short", metadata !"_ZNK11ap_int_baseILi33ELb1ELb1EE8to_shortEv", metadata !32, i32 1662, metadata !397, i1 false, i1 false, i32 0, i32 0, null, i32 256, i1 false, null, null, i32 0, metadata !44, i32 1662} ; [ DW_TAG_subprogram ]
!403 = metadata !{i32 786478, i32 0, metadata !262, metadata !"to_int", metadata !"to_int", metadata !"_ZNK11ap_int_baseILi33ELb1ELb1EE6to_intEv", metadata !32, i32 1663, metadata !404, i1 false, i1 false, i32 0, i32 0, null, i32 256, i1 false, null, null, i32 0, metadata !44, i32 1663} ; [ DW_TAG_subprogram ]
!404 = metadata !{i32 786453, i32 0, metadata !"", i32 0, i32 0, i64 0, i64 0, i64 0, i32 0, null, metadata !405, i32 0, i32 0} ; [ DW_TAG_subroutine_type ]
!405 = metadata !{metadata !53, metadata !395}
!406 = metadata !{i32 786478, i32 0, metadata !262, metadata !"to_uint", metadata !"to_uint", metadata !"_ZNK11ap_int_baseILi33ELb1ELb1EE7to_uintEv", metadata !32, i32 1664, metadata !407, i1 false, i1 false, i32 0, i32 0, null, i32 256, i1 false, null, null, i32 0, metadata !44, i32 1664} ; [ DW_TAG_subprogram ]
!407 = metadata !{i32 786453, i32 0, metadata !"", i32 0, i32 0, i64 0, i64 0, i64 0, i32 0, null, metadata !408, i32 0, i32 0} ; [ DW_TAG_subroutine_type ]
!408 = metadata !{metadata !99, metadata !395}
!409 = metadata !{i32 786478, i32 0, metadata !262, metadata !"to_long", metadata !"to_long", metadata !"_ZNK11ap_int_baseILi33ELb1ELb1EE7to_longEv", metadata !32, i32 1665, metadata !410, i1 false, i1 false, i32 0, i32 0, null, i32 256, i1 false, null, null, i32 0, metadata !44, i32 1665} ; [ DW_TAG_subprogram ]
!410 = metadata !{i32 786453, i32 0, metadata !"", i32 0, i32 0, i64 0, i64 0, i64 0, i32 0, null, metadata !411, i32 0, i32 0} ; [ DW_TAG_subroutine_type ]
!411 = metadata !{metadata !103, metadata !395}
!412 = metadata !{i32 786478, i32 0, metadata !262, metadata !"to_ulong", metadata !"to_ulong", metadata !"_ZNK11ap_int_baseILi33ELb1ELb1EE8to_ulongEv", metadata !32, i32 1666, metadata !413, i1 false, i1 false, i32 0, i32 0, null, i32 256, i1 false, null, null, i32 0, metadata !44, i32 1666} ; [ DW_TAG_subprogram ]
!413 = metadata !{i32 786453, i32 0, metadata !"", i32 0, i32 0, i64 0, i64 0, i64 0, i32 0, null, metadata !414, i32 0, i32 0} ; [ DW_TAG_subroutine_type ]
!414 = metadata !{metadata !107, metadata !395}
!415 = metadata !{i32 786478, i32 0, metadata !262, metadata !"to_int64", metadata !"to_int64", metadata !"_ZNK11ap_int_baseILi33ELb1ELb1EE8to_int64Ev", metadata !32, i32 1667, metadata !416, i1 false, i1 false, i32 0, i32 0, null, i32 256, i1 false, null, null, i32 0, metadata !44, i32 1667} ; [ DW_TAG_subprogram ]
!416 = metadata !{i32 786453, i32 0, metadata !"", i32 0, i32 0, i64 0, i64 0, i64 0, i32 0, null, metadata !417, i32 0, i32 0} ; [ DW_TAG_subroutine_type ]
!417 = metadata !{metadata !111, metadata !395}
!418 = metadata !{i32 786478, i32 0, metadata !262, metadata !"to_uint64", metadata !"to_uint64", metadata !"_ZNK11ap_int_baseILi33ELb1ELb1EE9to_uint64Ev", metadata !32, i32 1668, metadata !419, i1 false, i1 false, i32 0, i32 0, null, i32 256, i1 false, null, null, i32 0, metadata !44, i32 1668} ; [ DW_TAG_subprogram ]
!419 = metadata !{i32 786453, i32 0, metadata !"", i32 0, i32 0, i64 0, i64 0, i64 0, i32 0, null, metadata !420, i32 0, i32 0} ; [ DW_TAG_subroutine_type ]
!420 = metadata !{metadata !116, metadata !395}
!421 = metadata !{i32 786478, i32 0, metadata !262, metadata !"to_double", metadata !"to_double", metadata !"_ZNK11ap_int_baseILi33ELb1ELb1EE9to_doubleEv", metadata !32, i32 1669, metadata !422, i1 false, i1 false, i32 0, i32 0, null, i32 256, i1 false, null, null, i32 0, metadata !44, i32 1669} ; [ DW_TAG_subprogram ]
!422 = metadata !{i32 786453, i32 0, metadata !"", i32 0, i32 0, i64 0, i64 0, i64 0, i32 0, null, metadata !423, i32 0, i32 0} ; [ DW_TAG_subroutine_type ]
!423 = metadata !{metadata !125, metadata !395}
!424 = metadata !{i32 786478, i32 0, metadata !262, metadata !"length", metadata !"length", metadata !"_ZNK11ap_int_baseILi33ELb1ELb1EE6lengthEv", metadata !32, i32 1682, metadata !404, i1 false, i1 false, i32 0, i32 0, null, i32 256, i1 false, null, null, i32 0, metadata !44, i32 1682} ; [ DW_TAG_subprogram ]
!425 = metadata !{i32 786478, i32 0, metadata !262, metadata !"length", metadata !"length", metadata !"_ZNVK11ap_int_baseILi33ELb1ELb1EE6lengthEv", metadata !32, i32 1683, metadata !426, i1 false, i1 false, i32 0, i32 0, null, i32 256, i1 false, null, null, i32 0, metadata !44, i32 1683} ; [ DW_TAG_subprogram ]
!426 = metadata !{i32 786453, i32 0, metadata !"", i32 0, i32 0, i64 0, i64 0, i64 0, i32 0, null, metadata !427, i32 0, i32 0} ; [ DW_TAG_subroutine_type ]
!427 = metadata !{metadata !53, metadata !428}
!428 = metadata !{i32 786447, i32 0, metadata !"", i32 0, i32 0, i64 64, i64 64, i64 0, i32 64, metadata !292} ; [ DW_TAG_pointer_type ]
!429 = metadata !{i32 786478, i32 0, metadata !262, metadata !"reverse", metadata !"reverse", metadata !"_ZN11ap_int_baseILi33ELb1ELb1EE7reverseEv", metadata !32, i32 1688, metadata !430, i1 false, i1 false, i32 0, i32 0, null, i32 256, i1 false, null, null, i32 0, metadata !44, i32 1688} ; [ DW_TAG_subprogram ]
!430 = metadata !{i32 786453, i32 0, metadata !"", i32 0, i32 0, i64 0, i64 0, i64 0, i32 0, null, metadata !431, i32 0, i32 0} ; [ DW_TAG_subroutine_type ]
!431 = metadata !{metadata !353, metadata !279}
!432 = metadata !{i32 786478, i32 0, metadata !262, metadata !"iszero", metadata !"iszero", metadata !"_ZNK11ap_int_baseILi33ELb1ELb1EE6iszeroEv", metadata !32, i32 1694, metadata !397, i1 false, i1 false, i32 0, i32 0, null, i32 256, i1 false, null, null, i32 0, metadata !44, i32 1694} ; [ DW_TAG_subprogram ]
!433 = metadata !{i32 786478, i32 0, metadata !262, metadata !"is_zero", metadata !"is_zero", metadata !"_ZNK11ap_int_baseILi33ELb1ELb1EE7is_zeroEv", metadata !32, i32 1699, metadata !397, i1 false, i1 false, i32 0, i32 0, null, i32 256, i1 false, null, null, i32 0, metadata !44, i32 1699} ; [ DW_TAG_subprogram ]
!434 = metadata !{i32 786478, i32 0, metadata !262, metadata !"sign", metadata !"sign", metadata !"_ZNK11ap_int_baseILi33ELb1ELb1EE4signEv", metadata !32, i32 1704, metadata !397, i1 false, i1 false, i32 0, i32 0, null, i32 256, i1 false, null, null, i32 0, metadata !44, i32 1704} ; [ DW_TAG_subprogram ]
!435 = metadata !{i32 786478, i32 0, metadata !262, metadata !"clear", metadata !"clear", metadata !"_ZN11ap_int_baseILi33ELb1ELb1EE5clearEi", metadata !32, i32 1712, metadata !310, i1 false, i1 false, i32 0, i32 0, null, i32 256, i1 false, null, null, i32 0, metadata !44, i32 1712} ; [ DW_TAG_subprogram ]
!436 = metadata !{i32 786478, i32 0, metadata !262, metadata !"invert", metadata !"invert", metadata !"_ZN11ap_int_baseILi33ELb1ELb1EE6invertEi", metadata !32, i32 1718, metadata !310, i1 false, i1 false, i32 0, i32 0, null, i32 256, i1 false, null, null, i32 0, metadata !44, i32 1718} ; [ DW_TAG_subprogram ]
!437 = metadata !{i32 786478, i32 0, metadata !262, metadata !"test", metadata !"test", metadata !"_ZNK11ap_int_baseILi33ELb1ELb1EE4testEi", metadata !32, i32 1726, metadata !438, i1 false, i1 false, i32 0, i32 0, null, i32 256, i1 false, null, null, i32 0, metadata !44, i32 1726} ; [ DW_TAG_subprogram ]
!438 = metadata !{i32 786453, i32 0, metadata !"", i32 0, i32 0, i64 0, i64 0, i64 0, i32 0, null, metadata !439, i32 0, i32 0} ; [ DW_TAG_subroutine_type ]
!439 = metadata !{metadata !55, metadata !395, metadata !53}
!440 = metadata !{i32 786478, i32 0, metadata !262, metadata !"set", metadata !"set", metadata !"_ZN11ap_int_baseILi33ELb1ELb1EE3setEi", metadata !32, i32 1732, metadata !310, i1 false, i1 false, i32 0, i32 0, null, i32 256, i1 false, null, null, i32 0, metadata !44, i32 1732} ; [ DW_TAG_subprogram ]
!441 = metadata !{i32 786478, i32 0, metadata !262, metadata !"set", metadata !"set", metadata !"_ZN11ap_int_baseILi33ELb1ELb1EE3setEib", metadata !32, i32 1738, metadata !442, i1 false, i1 false, i32 0, i32 0, null, i32 256, i1 false, null, null, i32 0, metadata !44, i32 1738} ; [ DW_TAG_subprogram ]
!442 = metadata !{i32 786453, i32 0, metadata !"", i32 0, i32 0, i64 0, i64 0, i64 0, i32 0, null, metadata !443, i32 0, i32 0} ; [ DW_TAG_subroutine_type ]
!443 = metadata !{null, metadata !279, metadata !53, metadata !55}
!444 = metadata !{i32 786478, i32 0, metadata !262, metadata !"lrotate", metadata !"lrotate", metadata !"_ZN11ap_int_baseILi33ELb1ELb1EE7lrotateEi", metadata !32, i32 1745, metadata !310, i1 false, i1 false, i32 0, i32 0, null, i32 256, i1 false, null, null, i32 0, metadata !44, i32 1745} ; [ DW_TAG_subprogram ]
!445 = metadata !{i32 786478, i32 0, metadata !262, metadata !"rrotate", metadata !"rrotate", metadata !"_ZN11ap_int_baseILi33ELb1ELb1EE7rrotateEi", metadata !32, i32 1754, metadata !310, i1 false, i1 false, i32 0, i32 0, null, i32 256, i1 false, null, null, i32 0, metadata !44, i32 1754} ; [ DW_TAG_subprogram ]
!446 = metadata !{i32 786478, i32 0, metadata !262, metadata !"set_bit", metadata !"set_bit", metadata !"_ZN11ap_int_baseILi33ELb1ELb1EE7set_bitEib", metadata !32, i32 1762, metadata !442, i1 false, i1 false, i32 0, i32 0, null, i32 256, i1 false, null, null, i32 0, metadata !44, i32 1762} ; [ DW_TAG_subprogram ]
!447 = metadata !{i32 786478, i32 0, metadata !262, metadata !"get_bit", metadata !"get_bit", metadata !"_ZNK11ap_int_baseILi33ELb1ELb1EE7get_bitEi", metadata !32, i32 1767, metadata !438, i1 false, i1 false, i32 0, i32 0, null, i32 256, i1 false, null, null, i32 0, metadata !44, i32 1767} ; [ DW_TAG_subprogram ]
!448 = metadata !{i32 786478, i32 0, metadata !262, metadata !"b_not", metadata !"b_not", metadata !"_ZN11ap_int_baseILi33ELb1ELb1EE5b_notEv", metadata !32, i32 1772, metadata !277, i1 false, i1 false, i32 0, i32 0, null, i32 256, i1 false, null, null, i32 0, metadata !44, i32 1772} ; [ DW_TAG_subprogram ]
!449 = metadata !{i32 786478, i32 0, metadata !262, metadata !"countLeadingZeros", metadata !"countLeadingZeros", metadata !"_ZN11ap_int_baseILi33ELb1ELb1EE17countLeadingZerosEv", metadata !32, i32 1779, metadata !450, i1 false, i1 false, i32 0, i32 0, null, i32 256, i1 false, null, null, i32 0, metadata !44, i32 1779} ; [ DW_TAG_subprogram ]
!450 = metadata !{i32 786453, i32 0, metadata !"", i32 0, i32 0, i64 0, i64 0, i64 0, i32 0, null, metadata !451, i32 0, i32 0} ; [ DW_TAG_subroutine_type ]
!451 = metadata !{metadata !53, metadata !279}
!452 = metadata !{i32 786478, i32 0, metadata !262, metadata !"operator++", metadata !"operator++", metadata !"_ZN11ap_int_baseILi33ELb1ELb1EEppEv", metadata !32, i32 1836, metadata !430, i1 false, i1 false, i32 0, i32 0, null, i32 256, i1 false, null, null, i32 0, metadata !44, i32 1836} ; [ DW_TAG_subprogram ]
!453 = metadata !{i32 786478, i32 0, metadata !262, metadata !"operator--", metadata !"operator--", metadata !"_ZN11ap_int_baseILi33ELb1ELb1EEmmEv", metadata !32, i32 1840, metadata !430, i1 false, i1 false, i32 0, i32 0, null, i32 256, i1 false, null, null, i32 0, metadata !44, i32 1840} ; [ DW_TAG_subprogram ]
!454 = metadata !{i32 786478, i32 0, metadata !262, metadata !"operator++", metadata !"operator++", metadata !"_ZN11ap_int_baseILi33ELb1ELb1EEppEi", metadata !32, i32 1848, metadata !455, i1 false, i1 false, i32 0, i32 0, null, i32 256, i1 false, null, null, i32 0, metadata !44, i32 1848} ; [ DW_TAG_subprogram ]
!455 = metadata !{i32 786453, i32 0, metadata !"", i32 0, i32 0, i64 0, i64 0, i64 0, i32 0, null, metadata !456, i32 0, i32 0} ; [ DW_TAG_subroutine_type ]
!456 = metadata !{metadata !284, metadata !279, metadata !53}
!457 = metadata !{i32 786478, i32 0, metadata !262, metadata !"operator--", metadata !"operator--", metadata !"_ZN11ap_int_baseILi33ELb1ELb1EEmmEi", metadata !32, i32 1853, metadata !455, i1 false, i1 false, i32 0, i32 0, null, i32 256, i1 false, null, null, i32 0, metadata !44, i32 1853} ; [ DW_TAG_subprogram ]
!458 = metadata !{i32 786478, i32 0, metadata !262, metadata !"operator+", metadata !"operator+", metadata !"_ZNK11ap_int_baseILi33ELb1ELb1EEpsEv", metadata !32, i32 1862, metadata !459, i1 false, i1 false, i32 0, i32 0, null, i32 256, i1 false, null, null, i32 0, metadata !44, i32 1862} ; [ DW_TAG_subprogram ]
!459 = metadata !{i32 786453, i32 0, metadata !"", i32 0, i32 0, i64 0, i64 0, i64 0, i32 0, null, metadata !460, i32 0, i32 0} ; [ DW_TAG_subroutine_type ]
!460 = metadata !{metadata !262, metadata !395}
!461 = metadata !{i32 786478, i32 0, metadata !262, metadata !"operator!", metadata !"operator!", metadata !"_ZNK11ap_int_baseILi33ELb1ELb1EEntEv", metadata !32, i32 1868, metadata !397, i1 false, i1 false, i32 0, i32 0, null, i32 256, i1 false, null, null, i32 0, metadata !44, i32 1868} ; [ DW_TAG_subprogram ]
!462 = metadata !{i32 786478, i32 0, metadata !262, metadata !"operator-", metadata !"operator-", metadata !"_ZNK11ap_int_baseILi33ELb1ELb1EEngEv", metadata !32, i32 1873, metadata !463, i1 false, i1 false, i32 0, i32 0, null, i32 256, i1 false, null, null, i32 0, metadata !44, i32 1873} ; [ DW_TAG_subprogram ]
!463 = metadata !{i32 786453, i32 0, metadata !"", i32 0, i32 0, i64 0, i64 0, i64 0, i32 0, null, metadata !464, i32 0, i32 0} ; [ DW_TAG_subroutine_type ]
!464 = metadata !{metadata !465, metadata !395}
!465 = metadata !{i32 786434, null, metadata !"ap_int_base<34, true, true>", metadata !32, i32 649, i32 0, i32 0, i32 0, i32 4, null, null, i32 0} ; [ DW_TAG_class_type ]
!466 = metadata !{i32 786478, i32 0, metadata !262, metadata !"range", metadata !"range", metadata !"_ZN11ap_int_baseILi33ELb1ELb1EE5rangeEii", metadata !32, i32 2003, metadata !467, i1 false, i1 false, i32 0, i32 0, null, i32 256, i1 false, null, null, i32 0, metadata !44, i32 2003} ; [ DW_TAG_subprogram ]
!467 = metadata !{i32 786453, i32 0, metadata !"", i32 0, i32 0, i64 0, i64 0, i64 0, i32 0, null, metadata !468, i32 0, i32 0} ; [ DW_TAG_subroutine_type ]
!468 = metadata !{metadata !469, metadata !279, metadata !53, metadata !53}
!469 = metadata !{i32 786434, null, metadata !"ap_range_ref<33, true>", metadata !32, i32 922, i32 0, i32 0, i32 0, i32 4, null, null, i32 0} ; [ DW_TAG_class_type ]
!470 = metadata !{i32 786478, i32 0, metadata !262, metadata !"operator()", metadata !"operator()", metadata !"_ZN11ap_int_baseILi33ELb1ELb1EEclEii", metadata !32, i32 2009, metadata !467, i1 false, i1 false, i32 0, i32 0, null, i32 256, i1 false, null, null, i32 0, metadata !44, i32 2009} ; [ DW_TAG_subprogram ]
!471 = metadata !{i32 786478, i32 0, metadata !262, metadata !"range", metadata !"range", metadata !"_ZNK11ap_int_baseILi33ELb1ELb1EE5rangeEii", metadata !32, i32 2015, metadata !472, i1 false, i1 false, i32 0, i32 0, null, i32 256, i1 false, null, null, i32 0, metadata !44, i32 2015} ; [ DW_TAG_subprogram ]
!472 = metadata !{i32 786453, i32 0, metadata !"", i32 0, i32 0, i64 0, i64 0, i64 0, i32 0, null, metadata !473, i32 0, i32 0} ; [ DW_TAG_subroutine_type ]
!473 = metadata !{metadata !469, metadata !395, metadata !53, metadata !53}
!474 = metadata !{i32 786478, i32 0, metadata !262, metadata !"operator()", metadata !"operator()", metadata !"_ZNK11ap_int_baseILi33ELb1ELb1EEclEii", metadata !32, i32 2021, metadata !472, i1 false, i1 false, i32 0, i32 0, null, i32 256, i1 false, null, null, i32 0, metadata !44, i32 2021} ; [ DW_TAG_subprogram ]
!475 = metadata !{i32 786478, i32 0, metadata !262, metadata !"operator[]", metadata !"operator[]", metadata !"_ZN11ap_int_baseILi33ELb1ELb1EEixEi", metadata !32, i32 2040, metadata !476, i1 false, i1 false, i32 0, i32 0, null, i32 256, i1 false, null, null, i32 0, metadata !44, i32 2040} ; [ DW_TAG_subprogram ]
!476 = metadata !{i32 786453, i32 0, metadata !"", i32 0, i32 0, i64 0, i64 0, i64 0, i32 0, null, metadata !477, i32 0, i32 0} ; [ DW_TAG_subroutine_type ]
!477 = metadata !{metadata !478, metadata !279, metadata !53}
!478 = metadata !{i32 786434, null, metadata !"ap_bit_ref<33, true>", metadata !32, i32 1192, i64 128, i64 64, i32 0, i32 0, null, metadata !479, i32 0, null, metadata !512} ; [ DW_TAG_class_type ]
!479 = metadata !{metadata !480, metadata !481, metadata !482, metadata !488, metadata !492, metadata !496, metadata !497, metadata !501, metadata !504, metadata !505, metadata !508, metadata !509}
!480 = metadata !{i32 786445, metadata !478, metadata !"d_bv", metadata !32, i32 1193, i64 64, i64 64, i64 0, i32 0, metadata !353} ; [ DW_TAG_member ]
!481 = metadata !{i32 786445, metadata !478, metadata !"d_index", metadata !32, i32 1194, i64 32, i64 32, i64 64, i32 0, metadata !53} ; [ DW_TAG_member ]
!482 = metadata !{i32 786478, i32 0, metadata !478, metadata !"ap_bit_ref", metadata !"ap_bit_ref", metadata !"", metadata !32, i32 1197, metadata !483, i1 false, i1 false, i32 0, i32 0, null, i32 256, i1 false, null, null, i32 0, metadata !44, i32 1197} ; [ DW_TAG_subprogram ]
!483 = metadata !{i32 786453, i32 0, metadata !"", i32 0, i32 0, i64 0, i64 0, i64 0, i32 0, null, metadata !484, i32 0, i32 0} ; [ DW_TAG_subroutine_type ]
!484 = metadata !{null, metadata !485, metadata !486}
!485 = metadata !{i32 786447, i32 0, metadata !"", i32 0, i32 0, i64 64, i64 64, i64 0, i32 64, metadata !478} ; [ DW_TAG_pointer_type ]
!486 = metadata !{i32 786448, null, null, null, i32 0, i64 0, i64 0, i64 0, i32 0, metadata !487} ; [ DW_TAG_reference_type ]
!487 = metadata !{i32 786470, null, metadata !"", null, i32 0, i64 0, i64 0, i64 0, i32 0, metadata !478} ; [ DW_TAG_const_type ]
!488 = metadata !{i32 786478, i32 0, metadata !478, metadata !"ap_bit_ref", metadata !"ap_bit_ref", metadata !"", metadata !32, i32 1200, metadata !489, i1 false, i1 false, i32 0, i32 0, null, i32 256, i1 false, null, null, i32 0, metadata !44, i32 1200} ; [ DW_TAG_subprogram ]
!489 = metadata !{i32 786453, i32 0, metadata !"", i32 0, i32 0, i64 0, i64 0, i64 0, i32 0, null, metadata !490, i32 0, i32 0} ; [ DW_TAG_subroutine_type ]
!490 = metadata !{null, metadata !485, metadata !491, metadata !53}
!491 = metadata !{i32 786447, null, metadata !"", null, i32 0, i64 64, i64 64, i64 0, i32 0, metadata !262} ; [ DW_TAG_pointer_type ]
!492 = metadata !{i32 786478, i32 0, metadata !478, metadata !"operator _Bool", metadata !"operator _Bool", metadata !"_ZNK10ap_bit_refILi33ELb1EEcvbEv", metadata !32, i32 1202, metadata !493, i1 false, i1 false, i32 0, i32 0, null, i32 256, i1 false, null, null, i32 0, metadata !44, i32 1202} ; [ DW_TAG_subprogram ]
!493 = metadata !{i32 786453, i32 0, metadata !"", i32 0, i32 0, i64 0, i64 0, i64 0, i32 0, null, metadata !494, i32 0, i32 0} ; [ DW_TAG_subroutine_type ]
!494 = metadata !{metadata !55, metadata !495}
!495 = metadata !{i32 786447, i32 0, metadata !"", i32 0, i32 0, i64 64, i64 64, i64 0, i32 64, metadata !487} ; [ DW_TAG_pointer_type ]
!496 = metadata !{i32 786478, i32 0, metadata !478, metadata !"to_bool", metadata !"to_bool", metadata !"_ZNK10ap_bit_refILi33ELb1EE7to_boolEv", metadata !32, i32 1203, metadata !493, i1 false, i1 false, i32 0, i32 0, null, i32 256, i1 false, null, null, i32 0, metadata !44, i32 1203} ; [ DW_TAG_subprogram ]
!497 = metadata !{i32 786478, i32 0, metadata !478, metadata !"operator=", metadata !"operator=", metadata !"_ZN10ap_bit_refILi33ELb1EEaSEy", metadata !32, i32 1205, metadata !498, i1 false, i1 false, i32 0, i32 0, null, i32 256, i1 false, null, null, i32 0, metadata !44, i32 1205} ; [ DW_TAG_subprogram ]
!498 = metadata !{i32 786453, i32 0, metadata !"", i32 0, i32 0, i64 0, i64 0, i64 0, i32 0, null, metadata !499, i32 0, i32 0} ; [ DW_TAG_subroutine_type ]
!499 = metadata !{metadata !500, metadata !485, metadata !117}
!500 = metadata !{i32 786448, null, null, null, i32 0, i64 0, i64 0, i64 0, i32 0, metadata !478} ; [ DW_TAG_reference_type ]
!501 = metadata !{i32 786478, i32 0, metadata !478, metadata !"operator=", metadata !"operator=", metadata !"_ZN10ap_bit_refILi33ELb1EEaSERKS0_", metadata !32, i32 1225, metadata !502, i1 false, i1 false, i32 0, i32 0, null, i32 256, i1 false, null, null, i32 0, metadata !44, i32 1225} ; [ DW_TAG_subprogram ]
!502 = metadata !{i32 786453, i32 0, metadata !"", i32 0, i32 0, i64 0, i64 0, i64 0, i32 0, null, metadata !503, i32 0, i32 0} ; [ DW_TAG_subroutine_type ]
!503 = metadata !{metadata !500, metadata !485, metadata !486}
!504 = metadata !{i32 786478, i32 0, metadata !478, metadata !"get", metadata !"get", metadata !"_ZNK10ap_bit_refILi33ELb1EE3getEv", metadata !32, i32 1333, metadata !493, i1 false, i1 false, i32 0, i32 0, null, i32 256, i1 false, null, null, i32 0, metadata !44, i32 1333} ; [ DW_TAG_subprogram ]
!505 = metadata !{i32 786478, i32 0, metadata !478, metadata !"get", metadata !"get", metadata !"_ZN10ap_bit_refILi33ELb1EE3getEv", metadata !32, i32 1337, metadata !506, i1 false, i1 false, i32 0, i32 0, null, i32 256, i1 false, null, null, i32 0, metadata !44, i32 1337} ; [ DW_TAG_subprogram ]
!506 = metadata !{i32 786453, i32 0, metadata !"", i32 0, i32 0, i64 0, i64 0, i64 0, i32 0, null, metadata !507, i32 0, i32 0} ; [ DW_TAG_subroutine_type ]
!507 = metadata !{metadata !55, metadata !485}
!508 = metadata !{i32 786478, i32 0, metadata !478, metadata !"operator~", metadata !"operator~", metadata !"_ZNK10ap_bit_refILi33ELb1EEcoEv", metadata !32, i32 1346, metadata !493, i1 false, i1 false, i32 0, i32 0, null, i32 256, i1 false, null, null, i32 0, metadata !44, i32 1346} ; [ DW_TAG_subprogram ]
!509 = metadata !{i32 786478, i32 0, metadata !478, metadata !"length", metadata !"length", metadata !"_ZNK10ap_bit_refILi33ELb1EE6lengthEv", metadata !32, i32 1351, metadata !510, i1 false, i1 false, i32 0, i32 0, null, i32 256, i1 false, null, null, i32 0, metadata !44, i32 1351} ; [ DW_TAG_subprogram ]
!510 = metadata !{i32 786453, i32 0, metadata !"", i32 0, i32 0, i64 0, i64 0, i64 0, i32 0, null, metadata !511, i32 0, i32 0} ; [ DW_TAG_subroutine_type ]
!511 = metadata !{metadata !53, metadata !495}
!512 = metadata !{metadata !513, metadata !275}
!513 = metadata !{i32 786480, null, metadata !"_AP_W", metadata !53, i64 33, null, i32 0, i32 0} ; [ DW_TAG_template_value_parameter ]
!514 = metadata !{i32 786478, i32 0, metadata !262, metadata !"operator[]", metadata !"operator[]", metadata !"_ZNK11ap_int_baseILi33ELb1ELb1EEixEi", metadata !32, i32 2054, metadata !438, i1 false, i1 false, i32 0, i32 0, null, i32 256, i1 false, null, null, i32 0, metadata !44, i32 2054} ; [ DW_TAG_subprogram ]
!515 = metadata !{i32 786478, i32 0, metadata !262, metadata !"bit", metadata !"bit", metadata !"_ZN11ap_int_baseILi33ELb1ELb1EE3bitEi", metadata !32, i32 2068, metadata !476, i1 false, i1 false, i32 0, i32 0, null, i32 256, i1 false, null, null, i32 0, metadata !44, i32 2068} ; [ DW_TAG_subprogram ]
!516 = metadata !{i32 786478, i32 0, metadata !262, metadata !"bit", metadata !"bit", metadata !"_ZNK11ap_int_baseILi33ELb1ELb1EE3bitEi", metadata !32, i32 2082, metadata !438, i1 false, i1 false, i32 0, i32 0, null, i32 256, i1 false, null, null, i32 0, metadata !44, i32 2082} ; [ DW_TAG_subprogram ]
!517 = metadata !{i32 786478, i32 0, metadata !262, metadata !"and_reduce", metadata !"and_reduce", metadata !"_ZN11ap_int_baseILi33ELb1ELb1EE10and_reduceEv", metadata !32, i32 2262, metadata !518, i1 false, i1 false, i32 0, i32 0, null, i32 256, i1 false, null, null, i32 0, metadata !44, i32 2262} ; [ DW_TAG_subprogram ]
!518 = metadata !{i32 786453, i32 0, metadata !"", i32 0, i32 0, i64 0, i64 0, i64 0, i32 0, null, metadata !519, i32 0, i32 0} ; [ DW_TAG_subroutine_type ]
!519 = metadata !{metadata !55, metadata !279}
!520 = metadata !{i32 786478, i32 0, metadata !262, metadata !"nand_reduce", metadata !"nand_reduce", metadata !"_ZN11ap_int_baseILi33ELb1ELb1EE11nand_reduceEv", metadata !32, i32 2265, metadata !518, i1 false, i1 false, i32 0, i32 0, null, i32 256, i1 false, null, null, i32 0, metadata !44, i32 2265} ; [ DW_TAG_subprogram ]
!521 = metadata !{i32 786478, i32 0, metadata !262, metadata !"or_reduce", metadata !"or_reduce", metadata !"_ZN11ap_int_baseILi33ELb1ELb1EE9or_reduceEv", metadata !32, i32 2268, metadata !518, i1 false, i1 false, i32 0, i32 0, null, i32 256, i1 false, null, null, i32 0, metadata !44, i32 2268} ; [ DW_TAG_subprogram ]
!522 = metadata !{i32 786478, i32 0, metadata !262, metadata !"nor_reduce", metadata !"nor_reduce", metadata !"_ZN11ap_int_baseILi33ELb1ELb1EE10nor_reduceEv", metadata !32, i32 2271, metadata !518, i1 false, i1 false, i32 0, i32 0, null, i32 256, i1 false, null, null, i32 0, metadata !44, i32 2271} ; [ DW_TAG_subprogram ]
!523 = metadata !{i32 786478, i32 0, metadata !262, metadata !"xor_reduce", metadata !"xor_reduce", metadata !"_ZN11ap_int_baseILi33ELb1ELb1EE10xor_reduceEv", metadata !32, i32 2274, metadata !518, i1 false, i1 false, i32 0, i32 0, null, i32 256, i1 false, null, null, i32 0, metadata !44, i32 2274} ; [ DW_TAG_subprogram ]
!524 = metadata !{i32 786478, i32 0, metadata !262, metadata !"xnor_reduce", metadata !"xnor_reduce", metadata !"_ZN11ap_int_baseILi33ELb1ELb1EE11xnor_reduceEv", metadata !32, i32 2277, metadata !518, i1 false, i1 false, i32 0, i32 0, null, i32 256, i1 false, null, null, i32 0, metadata !44, i32 2277} ; [ DW_TAG_subprogram ]
!525 = metadata !{i32 786478, i32 0, metadata !262, metadata !"and_reduce", metadata !"and_reduce", metadata !"_ZNK11ap_int_baseILi33ELb1ELb1EE10and_reduceEv", metadata !32, i32 2281, metadata !397, i1 false, i1 false, i32 0, i32 0, null, i32 256, i1 false, null, null, i32 0, metadata !44, i32 2281} ; [ DW_TAG_subprogram ]
!526 = metadata !{i32 786478, i32 0, metadata !262, metadata !"nand_reduce", metadata !"nand_reduce", metadata !"_ZNK11ap_int_baseILi33ELb1ELb1EE11nand_reduceEv", metadata !32, i32 2284, metadata !397, i1 false, i1 false, i32 0, i32 0, null, i32 256, i1 false, null, null, i32 0, metadata !44, i32 2284} ; [ DW_TAG_subprogram ]
!527 = metadata !{i32 786478, i32 0, metadata !262, metadata !"or_reduce", metadata !"or_reduce", metadata !"_ZNK11ap_int_baseILi33ELb1ELb1EE9or_reduceEv", metadata !32, i32 2287, metadata !397, i1 false, i1 false, i32 0, i32 0, null, i32 256, i1 false, null, null, i32 0, metadata !44, i32 2287} ; [ DW_TAG_subprogram ]
!528 = metadata !{i32 786478, i32 0, metadata !262, metadata !"nor_reduce", metadata !"nor_reduce", metadata !"_ZNK11ap_int_baseILi33ELb1ELb1EE10nor_reduceEv", metadata !32, i32 2290, metadata !397, i1 false, i1 false, i32 0, i32 0, null, i32 256, i1 false, null, null, i32 0, metadata !44, i32 2290} ; [ DW_TAG_subprogram ]
!529 = metadata !{i32 786478, i32 0, metadata !262, metadata !"xor_reduce", metadata !"xor_reduce", metadata !"_ZNK11ap_int_baseILi33ELb1ELb1EE10xor_reduceEv", metadata !32, i32 2293, metadata !397, i1 false, i1 false, i32 0, i32 0, null, i32 256, i1 false, null, null, i32 0, metadata !44, i32 2293} ; [ DW_TAG_subprogram ]
!530 = metadata !{i32 786478, i32 0, metadata !262, metadata !"xnor_reduce", metadata !"xnor_reduce", metadata !"_ZNK11ap_int_baseILi33ELb1ELb1EE11xnor_reduceEv", metadata !32, i32 2296, metadata !397, i1 false, i1 false, i32 0, i32 0, null, i32 256, i1 false, null, null, i32 0, metadata !44, i32 2296} ; [ DW_TAG_subprogram ]
!531 = metadata !{i32 786478, i32 0, metadata !262, metadata !"to_string", metadata !"to_string", metadata !"_ZNK11ap_int_baseILi33ELb1ELb1EE9to_stringEPci8BaseModeb", metadata !32, i32 2303, metadata !532, i1 false, i1 false, i32 0, i32 0, null, i32 256, i1 false, null, null, i32 0, metadata !44, i32 2303} ; [ DW_TAG_subprogram ]
!532 = metadata !{i32 786453, i32 0, metadata !"", i32 0, i32 0, i64 0, i64 0, i64 0, i32 0, null, metadata !533, i32 0, i32 0} ; [ DW_TAG_subroutine_type ]
!533 = metadata !{null, metadata !395, metadata !534, metadata !53, metadata !535, metadata !55}
!534 = metadata !{i32 786447, null, metadata !"", null, i32 0, i64 64, i64 64, i64 0, i32 0, metadata !131} ; [ DW_TAG_pointer_type ]
!535 = metadata !{i32 786436, null, metadata !"BaseMode", metadata !32, i32 601, i64 5, i64 8, i32 0, i32 0, null, metadata !536, i32 0, i32 0} ; [ DW_TAG_enumeration_type ]
!536 = metadata !{metadata !537, metadata !538, metadata !539, metadata !540}
!537 = metadata !{i32 786472, metadata !"SC_BIN", i64 2} ; [ DW_TAG_enumerator ]
!538 = metadata !{i32 786472, metadata !"SC_OCT", i64 8} ; [ DW_TAG_enumerator ]
!539 = metadata !{i32 786472, metadata !"SC_DEC", i64 10} ; [ DW_TAG_enumerator ]
!540 = metadata !{i32 786472, metadata !"SC_HEX", i64 16} ; [ DW_TAG_enumerator ]
!541 = metadata !{i32 786478, i32 0, metadata !262, metadata !"to_string", metadata !"to_string", metadata !"_ZNK11ap_int_baseILi33ELb1ELb1EE9to_stringE8BaseModeb", metadata !32, i32 2330, metadata !542, i1 false, i1 false, i32 0, i32 0, null, i32 256, i1 false, null, null, i32 0, metadata !44, i32 2330} ; [ DW_TAG_subprogram ]
!542 = metadata !{i32 786453, i32 0, metadata !"", i32 0, i32 0, i64 0, i64 0, i64 0, i32 0, null, metadata !543, i32 0, i32 0} ; [ DW_TAG_subroutine_type ]
!543 = metadata !{metadata !534, metadata !395, metadata !535, metadata !55}
!544 = metadata !{i32 786478, i32 0, metadata !262, metadata !"to_string", metadata !"to_string", metadata !"_ZNK11ap_int_baseILi33ELb1ELb1EE9to_stringEab", metadata !32, i32 2334, metadata !545, i1 false, i1 false, i32 0, i32 0, null, i32 256, i1 false, null, null, i32 0, metadata !44, i32 2334} ; [ DW_TAG_subprogram ]
!545 = metadata !{i32 786453, i32 0, metadata !"", i32 0, i32 0, i64 0, i64 0, i64 0, i32 0, null, metadata !546, i32 0, i32 0} ; [ DW_TAG_subroutine_type ]
!546 = metadata !{metadata !534, metadata !395, metadata !80, metadata !55}
!547 = metadata !{metadata !513, metadata !275, metadata !548}
!548 = metadata !{i32 786480, null, metadata !"_AP_C", metadata !55, i64 1, null, i32 0, i32 0} ; [ DW_TAG_template_value_parameter ]
!549 = metadata !{i32 786478, i32 0, metadata !31, metadata !"range", metadata !"range", metadata !"_ZN11ap_int_baseILi32ELb0ELb1EE5rangeEii", metadata !32, i32 2003, metadata !550, i1 false, i1 false, i32 0, i32 0, null, i32 256, i1 false, null, null, i32 0, metadata !44, i32 2003} ; [ DW_TAG_subprogram ]
!550 = metadata !{i32 786453, i32 0, metadata !"", i32 0, i32 0, i64 0, i64 0, i64 0, i32 0, null, metadata !551, i32 0, i32 0} ; [ DW_TAG_subroutine_type ]
!551 = metadata !{metadata !552, metadata !59, metadata !53, metadata !53}
!552 = metadata !{i32 786434, null, metadata !"ap_range_ref<32, false>", metadata !32, i32 922, i64 128, i64 64, i32 0, i32 0, null, metadata !553, i32 0, null, metadata !609} ; [ DW_TAG_class_type ]
!553 = metadata !{metadata !554, metadata !555, metadata !556, metadata !557, metadata !563, metadata !567, metadata !571, metadata !574, metadata !578, metadata !581, metadata !585, metadata !588, metadata !589, metadata !592, metadata !595, metadata !598, metadata !601, metadata !604, metadata !607, metadata !608}
!554 = metadata !{i32 786445, metadata !552, metadata !"d_bv", metadata !32, i32 923, i64 64, i64 64, i64 0, i32 0, metadata !149} ; [ DW_TAG_member ]
!555 = metadata !{i32 786445, metadata !552, metadata !"l_index", metadata !32, i32 924, i64 32, i64 32, i64 64, i32 0, metadata !53} ; [ DW_TAG_member ]
!556 = metadata !{i32 786445, metadata !552, metadata !"h_index", metadata !32, i32 925, i64 32, i64 32, i64 96, i32 0, metadata !53} ; [ DW_TAG_member ]
!557 = metadata !{i32 786478, i32 0, metadata !552, metadata !"ap_range_ref", metadata !"ap_range_ref", metadata !"", metadata !32, i32 928, metadata !558, i1 false, i1 false, i32 0, i32 0, null, i32 256, i1 false, null, null, i32 0, metadata !44, i32 928} ; [ DW_TAG_subprogram ]
!558 = metadata !{i32 786453, i32 0, metadata !"", i32 0, i32 0, i64 0, i64 0, i64 0, i32 0, null, metadata !559, i32 0, i32 0} ; [ DW_TAG_subroutine_type ]
!559 = metadata !{null, metadata !560, metadata !561}
!560 = metadata !{i32 786447, i32 0, metadata !"", i32 0, i32 0, i64 64, i64 64, i64 0, i32 64, metadata !552} ; [ DW_TAG_pointer_type ]
!561 = metadata !{i32 786448, null, null, null, i32 0, i64 0, i64 0, i64 0, i32 0, metadata !562} ; [ DW_TAG_reference_type ]
!562 = metadata !{i32 786470, null, metadata !"", null, i32 0, i64 0, i64 0, i64 0, i32 0, metadata !552} ; [ DW_TAG_const_type ]
!563 = metadata !{i32 786478, i32 0, metadata !552, metadata !"ap_range_ref", metadata !"ap_range_ref", metadata !"", metadata !32, i32 931, metadata !564, i1 false, i1 false, i32 0, i32 0, null, i32 256, i1 false, null, null, i32 0, metadata !44, i32 931} ; [ DW_TAG_subprogram ]
!564 = metadata !{i32 786453, i32 0, metadata !"", i32 0, i32 0, i64 0, i64 0, i64 0, i32 0, null, metadata !565, i32 0, i32 0} ; [ DW_TAG_subroutine_type ]
!565 = metadata !{null, metadata !560, metadata !566, metadata !53, metadata !53}
!566 = metadata !{i32 786447, null, metadata !"", null, i32 0, i64 64, i64 64, i64 0, i32 0, metadata !31} ; [ DW_TAG_pointer_type ]
!567 = metadata !{i32 786478, i32 0, metadata !552, metadata !"operator ap_int_base", metadata !"operator ap_int_base", metadata !"_ZNK12ap_range_refILi32ELb0EEcv11ap_int_baseILi32ELb0ELb1EEEv", metadata !32, i32 936, metadata !568, i1 false, i1 false, i32 0, i32 0, null, i32 256, i1 false, null, null, i32 0, metadata !44, i32 936} ; [ DW_TAG_subprogram ]
!568 = metadata !{i32 786453, i32 0, metadata !"", i32 0, i32 0, i64 0, i64 0, i64 0, i32 0, null, metadata !569, i32 0, i32 0} ; [ DW_TAG_subroutine_type ]
!569 = metadata !{metadata !31, metadata !570}
!570 = metadata !{i32 786447, i32 0, metadata !"", i32 0, i32 0, i64 64, i64 64, i64 0, i32 64, metadata !562} ; [ DW_TAG_pointer_type ]
!571 = metadata !{i32 786478, i32 0, metadata !552, metadata !"operator unsigned long long", metadata !"operator unsigned long long", metadata !"_ZNK12ap_range_refILi32ELb0EEcvyEv", metadata !32, i32 942, metadata !572, i1 false, i1 false, i32 0, i32 0, null, i32 256, i1 false, null, null, i32 0, metadata !44, i32 942} ; [ DW_TAG_subprogram ]
!572 = metadata !{i32 786453, i32 0, metadata !"", i32 0, i32 0, i64 0, i64 0, i64 0, i32 0, null, metadata !573, i32 0, i32 0} ; [ DW_TAG_subroutine_type ]
!573 = metadata !{metadata !117, metadata !570}
!574 = metadata !{i32 786478, i32 0, metadata !552, metadata !"operator=", metadata !"operator=", metadata !"_ZN12ap_range_refILi32ELb0EEaSEy", metadata !32, i32 946, metadata !575, i1 false, i1 false, i32 0, i32 0, null, i32 256, i1 false, null, null, i32 0, metadata !44, i32 946} ; [ DW_TAG_subprogram ]
!575 = metadata !{i32 786453, i32 0, metadata !"", i32 0, i32 0, i64 0, i64 0, i64 0, i32 0, null, metadata !576, i32 0, i32 0} ; [ DW_TAG_subroutine_type ]
!576 = metadata !{metadata !577, metadata !560, metadata !117}
!577 = metadata !{i32 786448, null, null, null, i32 0, i64 0, i64 0, i64 0, i32 0, metadata !552} ; [ DW_TAG_reference_type ]
!578 = metadata !{i32 786478, i32 0, metadata !552, metadata !"operator=", metadata !"operator=", metadata !"_ZN12ap_range_refILi32ELb0EEaSERKS0_", metadata !32, i32 964, metadata !579, i1 false, i1 false, i32 0, i32 0, null, i32 256, i1 false, null, null, i32 0, metadata !44, i32 964} ; [ DW_TAG_subprogram ]
!579 = metadata !{i32 786453, i32 0, metadata !"", i32 0, i32 0, i64 0, i64 0, i64 0, i32 0, null, metadata !580, i32 0, i32 0} ; [ DW_TAG_subroutine_type ]
!580 = metadata !{metadata !577, metadata !560, metadata !561}
!581 = metadata !{i32 786478, i32 0, metadata !552, metadata !"operator,", metadata !"operator,", metadata !"_ZN12ap_range_refILi32ELb0EEcmER11ap_int_baseILi32ELb0ELb1EE", metadata !32, i32 1019, metadata !582, i1 false, i1 false, i32 0, i32 0, null, i32 256, i1 false, null, null, i32 0, metadata !44, i32 1019} ; [ DW_TAG_subprogram ]
!582 = metadata !{i32 786453, i32 0, metadata !"", i32 0, i32 0, i64 0, i64 0, i64 0, i32 0, null, metadata !583, i32 0, i32 0} ; [ DW_TAG_subroutine_type ]
!583 = metadata !{metadata !584, metadata !560, metadata !149}
!584 = metadata !{i32 786434, null, metadata !"ap_concat_ref<32, ap_range_ref<32, false>, 32, ap_int_base<32, false, true> >", metadata !32, i32 685, i32 0, i32 0, i32 0, i32 4, null, null, i32 0} ; [ DW_TAG_class_type ]
!585 = metadata !{i32 786478, i32 0, metadata !552, metadata !"length", metadata !"length", metadata !"_ZNK12ap_range_refILi32ELb0EE6lengthEv", metadata !32, i32 1130, metadata !586, i1 false, i1 false, i32 0, i32 0, null, i32 256, i1 false, null, null, i32 0, metadata !44, i32 1130} ; [ DW_TAG_subprogram ]
!586 = metadata !{i32 786453, i32 0, metadata !"", i32 0, i32 0, i64 0, i64 0, i64 0, i32 0, null, metadata !587, i32 0, i32 0} ; [ DW_TAG_subroutine_type ]
!587 = metadata !{metadata !53, metadata !570}
!588 = metadata !{i32 786478, i32 0, metadata !552, metadata !"to_int", metadata !"to_int", metadata !"_ZNK12ap_range_refILi32ELb0EE6to_intEv", metadata !32, i32 1134, metadata !586, i1 false, i1 false, i32 0, i32 0, null, i32 256, i1 false, null, null, i32 0, metadata !44, i32 1134} ; [ DW_TAG_subprogram ]
!589 = metadata !{i32 786478, i32 0, metadata !552, metadata !"to_uint", metadata !"to_uint", metadata !"_ZNK12ap_range_refILi32ELb0EE7to_uintEv", metadata !32, i32 1137, metadata !590, i1 false, i1 false, i32 0, i32 0, null, i32 256, i1 false, null, null, i32 0, metadata !44, i32 1137} ; [ DW_TAG_subprogram ]
!590 = metadata !{i32 786453, i32 0, metadata !"", i32 0, i32 0, i64 0, i64 0, i64 0, i32 0, null, metadata !591, i32 0, i32 0} ; [ DW_TAG_subroutine_type ]
!591 = metadata !{metadata !99, metadata !570}
!592 = metadata !{i32 786478, i32 0, metadata !552, metadata !"to_long", metadata !"to_long", metadata !"_ZNK12ap_range_refILi32ELb0EE7to_longEv", metadata !32, i32 1140, metadata !593, i1 false, i1 false, i32 0, i32 0, null, i32 256, i1 false, null, null, i32 0, metadata !44, i32 1140} ; [ DW_TAG_subprogram ]
!593 = metadata !{i32 786453, i32 0, metadata !"", i32 0, i32 0, i64 0, i64 0, i64 0, i32 0, null, metadata !594, i32 0, i32 0} ; [ DW_TAG_subroutine_type ]
!594 = metadata !{metadata !103, metadata !570}
!595 = metadata !{i32 786478, i32 0, metadata !552, metadata !"to_ulong", metadata !"to_ulong", metadata !"_ZNK12ap_range_refILi32ELb0EE8to_ulongEv", metadata !32, i32 1143, metadata !596, i1 false, i1 false, i32 0, i32 0, null, i32 256, i1 false, null, null, i32 0, metadata !44, i32 1143} ; [ DW_TAG_subprogram ]
!596 = metadata !{i32 786453, i32 0, metadata !"", i32 0, i32 0, i64 0, i64 0, i64 0, i32 0, null, metadata !597, i32 0, i32 0} ; [ DW_TAG_subroutine_type ]
!597 = metadata !{metadata !107, metadata !570}
!598 = metadata !{i32 786478, i32 0, metadata !552, metadata !"to_int64", metadata !"to_int64", metadata !"_ZNK12ap_range_refILi32ELb0EE8to_int64Ev", metadata !32, i32 1146, metadata !599, i1 false, i1 false, i32 0, i32 0, null, i32 256, i1 false, null, null, i32 0, metadata !44, i32 1146} ; [ DW_TAG_subprogram ]
!599 = metadata !{i32 786453, i32 0, metadata !"", i32 0, i32 0, i64 0, i64 0, i64 0, i32 0, null, metadata !600, i32 0, i32 0} ; [ DW_TAG_subroutine_type ]
!600 = metadata !{metadata !111, metadata !570}
!601 = metadata !{i32 786478, i32 0, metadata !552, metadata !"to_uint64", metadata !"to_uint64", metadata !"_ZNK12ap_range_refILi32ELb0EE9to_uint64Ev", metadata !32, i32 1149, metadata !602, i1 false, i1 false, i32 0, i32 0, null, i32 256, i1 false, null, null, i32 0, metadata !44, i32 1149} ; [ DW_TAG_subprogram ]
!602 = metadata !{i32 786453, i32 0, metadata !"", i32 0, i32 0, i64 0, i64 0, i64 0, i32 0, null, metadata !603, i32 0, i32 0} ; [ DW_TAG_subroutine_type ]
!603 = metadata !{metadata !116, metadata !570}
!604 = metadata !{i32 786478, i32 0, metadata !552, metadata !"and_reduce", metadata !"and_reduce", metadata !"_ZNK12ap_range_refILi32ELb0EE10and_reduceEv", metadata !32, i32 1152, metadata !605, i1 false, i1 false, i32 0, i32 0, null, i32 256, i1 false, null, null, i32 0, metadata !44, i32 1152} ; [ DW_TAG_subprogram ]
!605 = metadata !{i32 786453, i32 0, metadata !"", i32 0, i32 0, i64 0, i64 0, i64 0, i32 0, null, metadata !606, i32 0, i32 0} ; [ DW_TAG_subroutine_type ]
!606 = metadata !{metadata !55, metadata !570}
!607 = metadata !{i32 786478, i32 0, metadata !552, metadata !"or_reduce", metadata !"or_reduce", metadata !"_ZNK12ap_range_refILi32ELb0EE9or_reduceEv", metadata !32, i32 1163, metadata !605, i1 false, i1 false, i32 0, i32 0, null, i32 256, i1 false, null, null, i32 0, metadata !44, i32 1163} ; [ DW_TAG_subprogram ]
!608 = metadata !{i32 786478, i32 0, metadata !552, metadata !"xor_reduce", metadata !"xor_reduce", metadata !"_ZNK12ap_range_refILi32ELb0EE10xor_reduceEv", metadata !32, i32 1174, metadata !605, i1 false, i1 false, i32 0, i32 0, null, i32 256, i1 false, null, null, i32 0, metadata !44, i32 1174} ; [ DW_TAG_subprogram ]
!609 = metadata !{metadata !610, metadata !54}
!610 = metadata !{i32 786480, null, metadata !"_AP_W", metadata !53, i64 32, null, i32 0, i32 0} ; [ DW_TAG_template_value_parameter ]
!611 = metadata !{i32 786478, i32 0, metadata !31, metadata !"operator()", metadata !"operator()", metadata !"_ZN11ap_int_baseILi32ELb0ELb1EEclEii", metadata !32, i32 2009, metadata !550, i1 false, i1 false, i32 0, i32 0, null, i32 256, i1 false, null, null, i32 0, metadata !44, i32 2009} ; [ DW_TAG_subprogram ]
!612 = metadata !{i32 786478, i32 0, metadata !31, metadata !"range", metadata !"range", metadata !"_ZNK11ap_int_baseILi32ELb0ELb1EE5rangeEii", metadata !32, i32 2015, metadata !613, i1 false, i1 false, i32 0, i32 0, null, i32 256, i1 false, null, null, i32 0, metadata !44, i32 2015} ; [ DW_TAG_subprogram ]
!613 = metadata !{i32 786453, i32 0, metadata !"", i32 0, i32 0, i64 0, i64 0, i64 0, i32 0, null, metadata !614, i32 0, i32 0} ; [ DW_TAG_subroutine_type ]
!614 = metadata !{metadata !552, metadata !192, metadata !53, metadata !53}
!615 = metadata !{i32 786478, i32 0, metadata !31, metadata !"operator()", metadata !"operator()", metadata !"_ZNK11ap_int_baseILi32ELb0ELb1EEclEii", metadata !32, i32 2021, metadata !613, i1 false, i1 false, i32 0, i32 0, null, i32 256, i1 false, null, null, i32 0, metadata !44, i32 2021} ; [ DW_TAG_subprogram ]
!616 = metadata !{i32 786478, i32 0, metadata !31, metadata !"operator[]", metadata !"operator[]", metadata !"_ZN11ap_int_baseILi32ELb0ELb1EEixEi", metadata !32, i32 2040, metadata !617, i1 false, i1 false, i32 0, i32 0, null, i32 256, i1 false, null, null, i32 0, metadata !44, i32 2040} ; [ DW_TAG_subprogram ]
!617 = metadata !{i32 786453, i32 0, metadata !"", i32 0, i32 0, i64 0, i64 0, i64 0, i32 0, null, metadata !618, i32 0, i32 0} ; [ DW_TAG_subroutine_type ]
!618 = metadata !{metadata !619, metadata !59, metadata !53}
!619 = metadata !{i32 786434, null, metadata !"ap_bit_ref<32, false>", metadata !32, i32 1192, i32 0, i32 0, i32 0, i32 4, null, null, i32 0} ; [ DW_TAG_class_type ]
!620 = metadata !{i32 786478, i32 0, metadata !31, metadata !"operator[]", metadata !"operator[]", metadata !"_ZNK11ap_int_baseILi32ELb0ELb1EEixEi", metadata !32, i32 2054, metadata !235, i1 false, i1 false, i32 0, i32 0, null, i32 256, i1 false, null, null, i32 0, metadata !44, i32 2054} ; [ DW_TAG_subprogram ]
!621 = metadata !{i32 786478, i32 0, metadata !31, metadata !"bit", metadata !"bit", metadata !"_ZN11ap_int_baseILi32ELb0ELb1EE3bitEi", metadata !32, i32 2068, metadata !617, i1 false, i1 false, i32 0, i32 0, null, i32 256, i1 false, null, null, i32 0, metadata !44, i32 2068} ; [ DW_TAG_subprogram ]
!622 = metadata !{i32 786478, i32 0, metadata !31, metadata !"bit", metadata !"bit", metadata !"_ZNK11ap_int_baseILi32ELb0ELb1EE3bitEi", metadata !32, i32 2082, metadata !235, i1 false, i1 false, i32 0, i32 0, null, i32 256, i1 false, null, null, i32 0, metadata !44, i32 2082} ; [ DW_TAG_subprogram ]
!623 = metadata !{i32 786478, i32 0, metadata !31, metadata !"and_reduce", metadata !"and_reduce", metadata !"_ZN11ap_int_baseILi32ELb0ELb1EE10and_reduceEv", metadata !32, i32 2262, metadata !624, i1 false, i1 false, i32 0, i32 0, null, i32 256, i1 false, null, null, i32 0, metadata !44, i32 2262} ; [ DW_TAG_subprogram ]
!624 = metadata !{i32 786453, i32 0, metadata !"", i32 0, i32 0, i64 0, i64 0, i64 0, i32 0, null, metadata !625, i32 0, i32 0} ; [ DW_TAG_subroutine_type ]
!625 = metadata !{metadata !55, metadata !59}
!626 = metadata !{i32 786478, i32 0, metadata !31, metadata !"nand_reduce", metadata !"nand_reduce", metadata !"_ZN11ap_int_baseILi32ELb0ELb1EE11nand_reduceEv", metadata !32, i32 2265, metadata !624, i1 false, i1 false, i32 0, i32 0, null, i32 256, i1 false, null, null, i32 0, metadata !44, i32 2265} ; [ DW_TAG_subprogram ]
!627 = metadata !{i32 786478, i32 0, metadata !31, metadata !"or_reduce", metadata !"or_reduce", metadata !"_ZN11ap_int_baseILi32ELb0ELb1EE9or_reduceEv", metadata !32, i32 2268, metadata !624, i1 false, i1 false, i32 0, i32 0, null, i32 256, i1 false, null, null, i32 0, metadata !44, i32 2268} ; [ DW_TAG_subprogram ]
!628 = metadata !{i32 786478, i32 0, metadata !31, metadata !"nor_reduce", metadata !"nor_reduce", metadata !"_ZN11ap_int_baseILi32ELb0ELb1EE10nor_reduceEv", metadata !32, i32 2271, metadata !624, i1 false, i1 false, i32 0, i32 0, null, i32 256, i1 false, null, null, i32 0, metadata !44, i32 2271} ; [ DW_TAG_subprogram ]
!629 = metadata !{i32 786478, i32 0, metadata !31, metadata !"xor_reduce", metadata !"xor_reduce", metadata !"_ZN11ap_int_baseILi32ELb0ELb1EE10xor_reduceEv", metadata !32, i32 2274, metadata !624, i1 false, i1 false, i32 0, i32 0, null, i32 256, i1 false, null, null, i32 0, metadata !44, i32 2274} ; [ DW_TAG_subprogram ]
!630 = metadata !{i32 786478, i32 0, metadata !31, metadata !"xnor_reduce", metadata !"xnor_reduce", metadata !"_ZN11ap_int_baseILi32ELb0ELb1EE11xnor_reduceEv", metadata !32, i32 2277, metadata !624, i1 false, i1 false, i32 0, i32 0, null, i32 256, i1 false, null, null, i32 0, metadata !44, i32 2277} ; [ DW_TAG_subprogram ]
!631 = metadata !{i32 786478, i32 0, metadata !31, metadata !"and_reduce", metadata !"and_reduce", metadata !"_ZNK11ap_int_baseILi32ELb0ELb1EE10and_reduceEv", metadata !32, i32 2281, metadata !194, i1 false, i1 false, i32 0, i32 0, null, i32 256, i1 false, null, null, i32 0, metadata !44, i32 2281} ; [ DW_TAG_subprogram ]
!632 = metadata !{i32 786478, i32 0, metadata !31, metadata !"nand_reduce", metadata !"nand_reduce", metadata !"_ZNK11ap_int_baseILi32ELb0ELb1EE11nand_reduceEv", metadata !32, i32 2284, metadata !194, i1 false, i1 false, i32 0, i32 0, null, i32 256, i1 false, null, null, i32 0, metadata !44, i32 2284} ; [ DW_TAG_subprogram ]
!633 = metadata !{i32 786478, i32 0, metadata !31, metadata !"or_reduce", metadata !"or_reduce", metadata !"_ZNK11ap_int_baseILi32ELb0ELb1EE9or_reduceEv", metadata !32, i32 2287, metadata !194, i1 false, i1 false, i32 0, i32 0, null, i32 256, i1 false, null, null, i32 0, metadata !44, i32 2287} ; [ DW_TAG_subprogram ]
!634 = metadata !{i32 786478, i32 0, metadata !31, metadata !"nor_reduce", metadata !"nor_reduce", metadata !"_ZNK11ap_int_baseILi32ELb0ELb1EE10nor_reduceEv", metadata !32, i32 2290, metadata !194, i1 false, i1 false, i32 0, i32 0, null, i32 256, i1 false, null, null, i32 0, metadata !44, i32 2290} ; [ DW_TAG_subprogram ]
!635 = metadata !{i32 786478, i32 0, metadata !31, metadata !"xor_reduce", metadata !"xor_reduce", metadata !"_ZNK11ap_int_baseILi32ELb0ELb1EE10xor_reduceEv", metadata !32, i32 2293, metadata !194, i1 false, i1 false, i32 0, i32 0, null, i32 256, i1 false, null, null, i32 0, metadata !44, i32 2293} ; [ DW_TAG_subprogram ]
!636 = metadata !{i32 786478, i32 0, metadata !31, metadata !"xnor_reduce", metadata !"xnor_reduce", metadata !"_ZNK11ap_int_baseILi32ELb0ELb1EE11xnor_reduceEv", metadata !32, i32 2296, metadata !194, i1 false, i1 false, i32 0, i32 0, null, i32 256, i1 false, null, null, i32 0, metadata !44, i32 2296} ; [ DW_TAG_subprogram ]
!637 = metadata !{i32 786478, i32 0, metadata !31, metadata !"to_string", metadata !"to_string", metadata !"_ZNK11ap_int_baseILi32ELb0ELb1EE9to_stringEPci8BaseModeb", metadata !32, i32 2303, metadata !638, i1 false, i1 false, i32 0, i32 0, null, i32 256, i1 false, null, null, i32 0, metadata !44, i32 2303} ; [ DW_TAG_subprogram ]
!638 = metadata !{i32 786453, i32 0, metadata !"", i32 0, i32 0, i64 0, i64 0, i64 0, i32 0, null, metadata !639, i32 0, i32 0} ; [ DW_TAG_subroutine_type ]
!639 = metadata !{null, metadata !192, metadata !534, metadata !53, metadata !535, metadata !55}
!640 = metadata !{i32 786478, i32 0, metadata !31, metadata !"to_string", metadata !"to_string", metadata !"_ZNK11ap_int_baseILi32ELb0ELb1EE9to_stringE8BaseModeb", metadata !32, i32 2330, metadata !641, i1 false, i1 false, i32 0, i32 0, null, i32 256, i1 false, null, null, i32 0, metadata !44, i32 2330} ; [ DW_TAG_subprogram ]
!641 = metadata !{i32 786453, i32 0, metadata !"", i32 0, i32 0, i64 0, i64 0, i64 0, i32 0, null, metadata !642, i32 0, i32 0} ; [ DW_TAG_subroutine_type ]
!642 = metadata !{metadata !534, metadata !192, metadata !535, metadata !55}
!643 = metadata !{i32 786478, i32 0, metadata !31, metadata !"to_string", metadata !"to_string", metadata !"_ZNK11ap_int_baseILi32ELb0ELb1EE9to_stringEab", metadata !32, i32 2334, metadata !644, i1 false, i1 false, i32 0, i32 0, null, i32 256, i1 false, null, null, i32 0, metadata !44, i32 2334} ; [ DW_TAG_subprogram ]
!644 = metadata !{i32 786453, i32 0, metadata !"", i32 0, i32 0, i64 0, i64 0, i64 0, i32 0, null, metadata !645, i32 0, i32 0} ; [ DW_TAG_subroutine_type ]
!645 = metadata !{metadata !534, metadata !192, metadata !80, metadata !55}
!646 = metadata !{i32 786478, i32 0, metadata !31, metadata !"ap_int_base", metadata !"ap_int_base", metadata !"", metadata !32, i32 1396, metadata !61, i1 false, i1 false, i32 0, i32 0, null, i32 320, i1 false, null, null, i32 0, metadata !44, i32 1396} ; [ DW_TAG_subprogram ]
!647 = metadata !{metadata !610, metadata !54, metadata !548}
!648 = metadata !{i32 786478, i32 0, metadata !27, metadata !"ap_uint", metadata !"ap_uint", metadata !"", metadata !28, i32 183, metadata !649, i1 false, i1 false, i32 0, i32 0, null, i32 256, i1 false, null, null, i32 0, metadata !44, i32 183} ; [ DW_TAG_subprogram ]
!649 = metadata !{i32 786453, i32 0, metadata !"", i32 0, i32 0, i64 0, i64 0, i64 0, i32 0, null, metadata !650, i32 0, i32 0} ; [ DW_TAG_subroutine_type ]
!650 = metadata !{null, metadata !651}
!651 = metadata !{i32 786447, i32 0, metadata !"", i32 0, i32 0, i64 64, i64 64, i64 0, i32 64, metadata !27} ; [ DW_TAG_pointer_type ]
!652 = metadata !{i32 786478, i32 0, metadata !27, metadata !"ap_uint<32>", metadata !"ap_uint<32>", metadata !"", metadata !28, i32 185, metadata !653, i1 false, i1 false, i32 0, i32 0, null, i32 256, i1 false, null, metadata !657, i32 0, metadata !44, i32 185} ; [ DW_TAG_subprogram ]
!653 = metadata !{i32 786453, i32 0, metadata !"", i32 0, i32 0, i64 0, i64 0, i64 0, i32 0, null, metadata !654, i32 0, i32 0} ; [ DW_TAG_subroutine_type ]
!654 = metadata !{null, metadata !651, metadata !655}
!655 = metadata !{i32 786448, null, null, null, i32 0, i64 0, i64 0, i64 0, i32 0, metadata !656} ; [ DW_TAG_reference_type ]
!656 = metadata !{i32 786470, null, metadata !"", null, i32 0, i64 0, i64 0, i64 0, i32 0, metadata !27} ; [ DW_TAG_const_type ]
!657 = metadata !{metadata !66}
!658 = metadata !{i32 786478, i32 0, metadata !27, metadata !"ap_uint<32>", metadata !"ap_uint<32>", metadata !"", metadata !28, i32 191, metadata !659, i1 false, i1 false, i32 0, i32 0, null, i32 256, i1 false, null, metadata !657, i32 0, metadata !44, i32 191} ; [ DW_TAG_subprogram ]
!659 = metadata !{i32 786453, i32 0, metadata !"", i32 0, i32 0, i64 0, i64 0, i64 0, i32 0, null, metadata !660, i32 0, i32 0} ; [ DW_TAG_subroutine_type ]
!660 = metadata !{null, metadata !651, metadata !661}
!661 = metadata !{i32 786448, null, null, null, i32 0, i64 0, i64 0, i64 0, i32 0, metadata !662} ; [ DW_TAG_reference_type ]
!662 = metadata !{i32 786470, null, metadata !"", null, i32 0, i64 0, i64 0, i64 0, i32 0, metadata !663} ; [ DW_TAG_const_type ]
!663 = metadata !{i32 786485, null, metadata !"", null, i32 0, i64 0, i64 0, i64 0, i32 0, metadata !27} ; [ DW_TAG_volatile_type ]
!664 = metadata !{i32 786478, i32 0, metadata !27, metadata !"ap_uint<32, false>", metadata !"ap_uint<32, false>", metadata !"", metadata !28, i32 226, metadata !665, i1 false, i1 false, i32 0, i32 0, null, i32 256, i1 false, null, metadata !65, i32 0, metadata !44, i32 226} ; [ DW_TAG_subprogram ]
!665 = metadata !{i32 786453, i32 0, metadata !"", i32 0, i32 0, i64 0, i64 0, i64 0, i32 0, null, metadata !666, i32 0, i32 0} ; [ DW_TAG_subroutine_type ]
!666 = metadata !{null, metadata !651, metadata !63}
!667 = metadata !{i32 786478, i32 0, metadata !27, metadata !"ap_uint", metadata !"ap_uint", metadata !"", metadata !28, i32 245, metadata !668, i1 false, i1 false, i32 0, i32 0, null, i32 256, i1 false, null, null, i32 0, metadata !44, i32 245} ; [ DW_TAG_subprogram ]
!668 = metadata !{i32 786453, i32 0, metadata !"", i32 0, i32 0, i64 0, i64 0, i64 0, i32 0, null, metadata !669, i32 0, i32 0} ; [ DW_TAG_subroutine_type ]
!669 = metadata !{null, metadata !651, metadata !55}
!670 = metadata !{i32 786478, i32 0, metadata !27, metadata !"ap_uint", metadata !"ap_uint", metadata !"", metadata !28, i32 246, metadata !671, i1 false, i1 false, i32 0, i32 0, null, i32 256, i1 false, null, null, i32 0, metadata !44, i32 246} ; [ DW_TAG_subprogram ]
!671 = metadata !{i32 786453, i32 0, metadata !"", i32 0, i32 0, i64 0, i64 0, i64 0, i32 0, null, metadata !672, i32 0, i32 0} ; [ DW_TAG_subroutine_type ]
!672 = metadata !{null, metadata !651, metadata !80}
!673 = metadata !{i32 786478, i32 0, metadata !27, metadata !"ap_uint", metadata !"ap_uint", metadata !"", metadata !28, i32 247, metadata !674, i1 false, i1 false, i32 0, i32 0, null, i32 256, i1 false, null, null, i32 0, metadata !44, i32 247} ; [ DW_TAG_subprogram ]
!674 = metadata !{i32 786453, i32 0, metadata !"", i32 0, i32 0, i64 0, i64 0, i64 0, i32 0, null, metadata !675, i32 0, i32 0} ; [ DW_TAG_subroutine_type ]
!675 = metadata !{null, metadata !651, metadata !84}
!676 = metadata !{i32 786478, i32 0, metadata !27, metadata !"ap_uint", metadata !"ap_uint", metadata !"", metadata !28, i32 248, metadata !677, i1 false, i1 false, i32 0, i32 0, null, i32 256, i1 false, null, null, i32 0, metadata !44, i32 248} ; [ DW_TAG_subprogram ]
!677 = metadata !{i32 786453, i32 0, metadata !"", i32 0, i32 0, i64 0, i64 0, i64 0, i32 0, null, metadata !678, i32 0, i32 0} ; [ DW_TAG_subroutine_type ]
!678 = metadata !{null, metadata !651, metadata !88}
!679 = metadata !{i32 786478, i32 0, metadata !27, metadata !"ap_uint", metadata !"ap_uint", metadata !"", metadata !28, i32 249, metadata !680, i1 false, i1 false, i32 0, i32 0, null, i32 256, i1 false, null, null, i32 0, metadata !44, i32 249} ; [ DW_TAG_subprogram ]
!680 = metadata !{i32 786453, i32 0, metadata !"", i32 0, i32 0, i64 0, i64 0, i64 0, i32 0, null, metadata !681, i32 0, i32 0} ; [ DW_TAG_subroutine_type ]
!681 = metadata !{null, metadata !651, metadata !92}
!682 = metadata !{i32 786478, i32 0, metadata !27, metadata !"ap_uint", metadata !"ap_uint", metadata !"", metadata !28, i32 250, metadata !683, i1 false, i1 false, i32 0, i32 0, null, i32 256, i1 false, null, null, i32 0, metadata !44, i32 250} ; [ DW_TAG_subprogram ]
!683 = metadata !{i32 786453, i32 0, metadata !"", i32 0, i32 0, i64 0, i64 0, i64 0, i32 0, null, metadata !684, i32 0, i32 0} ; [ DW_TAG_subroutine_type ]
!684 = metadata !{null, metadata !651, metadata !53}
!685 = metadata !{i32 786478, i32 0, metadata !27, metadata !"ap_uint", metadata !"ap_uint", metadata !"", metadata !28, i32 251, metadata !686, i1 false, i1 false, i32 0, i32 0, null, i32 256, i1 false, null, null, i32 0, metadata !44, i32 251} ; [ DW_TAG_subprogram ]
!686 = metadata !{i32 786453, i32 0, metadata !"", i32 0, i32 0, i64 0, i64 0, i64 0, i32 0, null, metadata !687, i32 0, i32 0} ; [ DW_TAG_subroutine_type ]
!687 = metadata !{null, metadata !651, metadata !99}
!688 = metadata !{i32 786478, i32 0, metadata !27, metadata !"ap_uint", metadata !"ap_uint", metadata !"", metadata !28, i32 252, metadata !689, i1 false, i1 false, i32 0, i32 0, null, i32 256, i1 false, null, null, i32 0, metadata !44, i32 252} ; [ DW_TAG_subprogram ]
!689 = metadata !{i32 786453, i32 0, metadata !"", i32 0, i32 0, i64 0, i64 0, i64 0, i32 0, null, metadata !690, i32 0, i32 0} ; [ DW_TAG_subroutine_type ]
!690 = metadata !{null, metadata !651, metadata !103}
!691 = metadata !{i32 786478, i32 0, metadata !27, metadata !"ap_uint", metadata !"ap_uint", metadata !"", metadata !28, i32 253, metadata !692, i1 false, i1 false, i32 0, i32 0, null, i32 256, i1 false, null, null, i32 0, metadata !44, i32 253} ; [ DW_TAG_subprogram ]
!692 = metadata !{i32 786453, i32 0, metadata !"", i32 0, i32 0, i64 0, i64 0, i64 0, i32 0, null, metadata !693, i32 0, i32 0} ; [ DW_TAG_subroutine_type ]
!693 = metadata !{null, metadata !651, metadata !107}
!694 = metadata !{i32 786478, i32 0, metadata !27, metadata !"ap_uint", metadata !"ap_uint", metadata !"", metadata !28, i32 254, metadata !695, i1 false, i1 false, i32 0, i32 0, null, i32 256, i1 false, null, null, i32 0, metadata !44, i32 254} ; [ DW_TAG_subprogram ]
!695 = metadata !{i32 786453, i32 0, metadata !"", i32 0, i32 0, i64 0, i64 0, i64 0, i32 0, null, metadata !696, i32 0, i32 0} ; [ DW_TAG_subroutine_type ]
!696 = metadata !{null, metadata !651, metadata !117}
!697 = metadata !{i32 786478, i32 0, metadata !27, metadata !"ap_uint", metadata !"ap_uint", metadata !"", metadata !28, i32 255, metadata !698, i1 false, i1 false, i32 0, i32 0, null, i32 256, i1 false, null, null, i32 0, metadata !44, i32 255} ; [ DW_TAG_subprogram ]
!698 = metadata !{i32 786453, i32 0, metadata !"", i32 0, i32 0, i64 0, i64 0, i64 0, i32 0, null, metadata !699, i32 0, i32 0} ; [ DW_TAG_subroutine_type ]
!699 = metadata !{null, metadata !651, metadata !112}
!700 = metadata !{i32 786478, i32 0, metadata !27, metadata !"ap_uint", metadata !"ap_uint", metadata !"", metadata !28, i32 256, metadata !701, i1 false, i1 false, i32 0, i32 0, null, i32 256, i1 false, null, null, i32 0, metadata !44, i32 256} ; [ DW_TAG_subprogram ]
!701 = metadata !{i32 786453, i32 0, metadata !"", i32 0, i32 0, i64 0, i64 0, i64 0, i32 0, null, metadata !702, i32 0, i32 0} ; [ DW_TAG_subroutine_type ]
!702 = metadata !{null, metadata !651, metadata !121}
!703 = metadata !{i32 786478, i32 0, metadata !27, metadata !"ap_uint", metadata !"ap_uint", metadata !"", metadata !28, i32 257, metadata !704, i1 false, i1 false, i32 0, i32 0, null, i32 256, i1 false, null, null, i32 0, metadata !44, i32 257} ; [ DW_TAG_subprogram ]
!704 = metadata !{i32 786453, i32 0, metadata !"", i32 0, i32 0, i64 0, i64 0, i64 0, i32 0, null, metadata !705, i32 0, i32 0} ; [ DW_TAG_subroutine_type ]
!705 = metadata !{null, metadata !651, metadata !125}
!706 = metadata !{i32 786478, i32 0, metadata !27, metadata !"ap_uint", metadata !"ap_uint", metadata !"", metadata !28, i32 259, metadata !707, i1 false, i1 false, i32 0, i32 0, null, i32 256, i1 false, null, null, i32 0, metadata !44, i32 259} ; [ DW_TAG_subprogram ]
!707 = metadata !{i32 786453, i32 0, metadata !"", i32 0, i32 0, i64 0, i64 0, i64 0, i32 0, null, metadata !708, i32 0, i32 0} ; [ DW_TAG_subroutine_type ]
!708 = metadata !{null, metadata !651, metadata !129}
!709 = metadata !{i32 786478, i32 0, metadata !27, metadata !"ap_uint", metadata !"ap_uint", metadata !"", metadata !28, i32 260, metadata !710, i1 false, i1 false, i32 0, i32 0, null, i32 256, i1 false, null, null, i32 0, metadata !44, i32 260} ; [ DW_TAG_subprogram ]
!710 = metadata !{i32 786453, i32 0, metadata !"", i32 0, i32 0, i64 0, i64 0, i64 0, i32 0, null, metadata !711, i32 0, i32 0} ; [ DW_TAG_subroutine_type ]
!711 = metadata !{null, metadata !651, metadata !129, metadata !80}
!712 = metadata !{i32 786478, i32 0, metadata !27, metadata !"operator=", metadata !"operator=", metadata !"_ZNV7ap_uintILi32EEaSERKS0_", metadata !28, i32 263, metadata !713, i1 false, i1 false, i32 0, i32 0, null, i32 256, i1 false, null, null, i32 0, metadata !44, i32 263} ; [ DW_TAG_subprogram ]
!713 = metadata !{i32 786453, i32 0, metadata !"", i32 0, i32 0, i64 0, i64 0, i64 0, i32 0, null, metadata !714, i32 0, i32 0} ; [ DW_TAG_subroutine_type ]
!714 = metadata !{null, metadata !715, metadata !655}
!715 = metadata !{i32 786447, i32 0, metadata !"", i32 0, i32 0, i64 64, i64 64, i64 0, i32 64, metadata !663} ; [ DW_TAG_pointer_type ]
!716 = metadata !{i32 786478, i32 0, metadata !27, metadata !"operator=", metadata !"operator=", metadata !"_ZNV7ap_uintILi32EEaSERVKS0_", metadata !28, i32 267, metadata !717, i1 false, i1 false, i32 0, i32 0, null, i32 256, i1 false, null, null, i32 0, metadata !44, i32 267} ; [ DW_TAG_subprogram ]
!717 = metadata !{i32 786453, i32 0, metadata !"", i32 0, i32 0, i64 0, i64 0, i64 0, i32 0, null, metadata !718, i32 0, i32 0} ; [ DW_TAG_subroutine_type ]
!718 = metadata !{null, metadata !715, metadata !661}
!719 = metadata !{i32 786478, i32 0, metadata !27, metadata !"operator=", metadata !"operator=", metadata !"_ZN7ap_uintILi32EEaSERVKS0_", metadata !28, i32 271, metadata !720, i1 false, i1 false, i32 0, i32 0, null, i32 256, i1 false, null, null, i32 0, metadata !44, i32 271} ; [ DW_TAG_subprogram ]
!720 = metadata !{i32 786453, i32 0, metadata !"", i32 0, i32 0, i64 0, i64 0, i64 0, i32 0, null, metadata !721, i32 0, i32 0} ; [ DW_TAG_subroutine_type ]
!721 = metadata !{metadata !722, metadata !651, metadata !661}
!722 = metadata !{i32 786448, null, null, null, i32 0, i64 0, i64 0, i64 0, i32 0, metadata !27} ; [ DW_TAG_reference_type ]
!723 = metadata !{i32 786478, i32 0, metadata !27, metadata !"operator=", metadata !"operator=", metadata !"_ZN7ap_uintILi32EEaSERKS0_", metadata !28, i32 276, metadata !724, i1 false, i1 false, i32 0, i32 0, null, i32 256, i1 false, null, null, i32 0, metadata !44, i32 276} ; [ DW_TAG_subprogram ]
!724 = metadata !{i32 786453, i32 0, metadata !"", i32 0, i32 0, i64 0, i64 0, i64 0, i32 0, null, metadata !725, i32 0, i32 0} ; [ DW_TAG_subroutine_type ]
!725 = metadata !{metadata !722, metadata !651, metadata !655}
!726 = metadata !{i32 786478, i32 0, metadata !27, metadata !"ap_uint", metadata !"ap_uint", metadata !"", metadata !28, i32 180, metadata !653, i1 false, i1 false, i32 0, i32 0, null, i32 320, i1 false, null, null, i32 0, metadata !44, i32 180} ; [ DW_TAG_subprogram ]
!727 = metadata !{i32 786478, i32 0, metadata !27, metadata !"~ap_uint", metadata !"~ap_uint", metadata !"", metadata !28, i32 180, metadata !649, i1 false, i1 false, i32 0, i32 0, null, i32 320, i1 false, null, null, i32 0, metadata !44, i32 180} ; [ DW_TAG_subprogram ]
!728 = metadata !{metadata !610}
!729 = metadata !{i32 786478, i32 0, metadata !22, metadata !"stream", metadata !"stream", metadata !"", metadata !24, i32 83, metadata !730, i1 false, i1 false, i32 0, i32 0, null, i32 256, i1 false, null, null, i32 0, metadata !44, i32 83} ; [ DW_TAG_subprogram ]
!730 = metadata !{i32 786453, i32 0, metadata !"", i32 0, i32 0, i64 0, i64 0, i64 0, i32 0, null, metadata !731, i32 0, i32 0} ; [ DW_TAG_subroutine_type ]
!731 = metadata !{null, metadata !732}
!732 = metadata !{i32 786447, i32 0, metadata !"", i32 0, i32 0, i64 64, i64 64, i64 0, i32 64, metadata !22} ; [ DW_TAG_pointer_type ]
!733 = metadata !{i32 786478, i32 0, metadata !22, metadata !"stream", metadata !"stream", metadata !"", metadata !24, i32 86, metadata !734, i1 false, i1 false, i32 0, i32 0, null, i32 256, i1 false, null, null, i32 0, metadata !44, i32 86} ; [ DW_TAG_subprogram ]
!734 = metadata !{i32 786453, i32 0, metadata !"", i32 0, i32 0, i64 0, i64 0, i64 0, i32 0, null, metadata !735, i32 0, i32 0} ; [ DW_TAG_subroutine_type ]
!735 = metadata !{null, metadata !732, metadata !129}
!736 = metadata !{i32 786478, i32 0, metadata !22, metadata !"stream", metadata !"stream", metadata !"", metadata !24, i32 91, metadata !737, i1 false, i1 false, i32 0, i32 0, null, i32 257, i1 false, null, null, i32 0, metadata !44, i32 91} ; [ DW_TAG_subprogram ]
!737 = metadata !{i32 786453, i32 0, metadata !"", i32 0, i32 0, i64 0, i64 0, i64 0, i32 0, null, metadata !738, i32 0, i32 0} ; [ DW_TAG_subroutine_type ]
!738 = metadata !{null, metadata !732, metadata !739}
!739 = metadata !{i32 786448, null, null, null, i32 0, i64 0, i64 0, i64 0, i32 0, metadata !740} ; [ DW_TAG_reference_type ]
!740 = metadata !{i32 786470, null, metadata !"", null, i32 0, i64 0, i64 0, i64 0, i32 0, metadata !22} ; [ DW_TAG_const_type ]
!741 = metadata !{i32 786478, i32 0, metadata !22, metadata !"operator=", metadata !"operator=", metadata !"_ZN3hls6streamI7ap_uintILi32EEEaSERKS3_", metadata !24, i32 94, metadata !742, i1 false, i1 false, i32 0, i32 0, null, i32 257, i1 false, null, null, i32 0, metadata !44, i32 94} ; [ DW_TAG_subprogram ]
!742 = metadata !{i32 786453, i32 0, metadata !"", i32 0, i32 0, i64 0, i64 0, i64 0, i32 0, null, metadata !743, i32 0, i32 0} ; [ DW_TAG_subroutine_type ]
!743 = metadata !{metadata !21, metadata !732, metadata !739}
!744 = metadata !{i32 786478, i32 0, metadata !22, metadata !"operator>>", metadata !"operator>>", metadata !"_ZN3hls6streamI7ap_uintILi32EEErsERS2_", metadata !24, i32 101, metadata !745, i1 false, i1 false, i32 0, i32 0, null, i32 256, i1 false, null, null, i32 0, metadata !44, i32 101} ; [ DW_TAG_subprogram ]
!745 = metadata !{i32 786453, i32 0, metadata !"", i32 0, i32 0, i64 0, i64 0, i64 0, i32 0, null, metadata !746, i32 0, i32 0} ; [ DW_TAG_subroutine_type ]
!746 = metadata !{null, metadata !732, metadata !722}
!747 = metadata !{i32 786478, i32 0, metadata !22, metadata !"operator<<", metadata !"operator<<", metadata !"_ZN3hls6streamI7ap_uintILi32EEElsERKS2_", metadata !24, i32 105, metadata !748, i1 false, i1 false, i32 0, i32 0, null, i32 256, i1 false, null, null, i32 0, metadata !44, i32 105} ; [ DW_TAG_subprogram ]
!748 = metadata !{i32 786453, i32 0, metadata !"", i32 0, i32 0, i64 0, i64 0, i64 0, i32 0, null, metadata !749, i32 0, i32 0} ; [ DW_TAG_subroutine_type ]
!749 = metadata !{null, metadata !732, metadata !655}
!750 = metadata !{i32 786478, i32 0, metadata !22, metadata !"empty", metadata !"empty", metadata !"_ZNK3hls6streamI7ap_uintILi32EEE5emptyEv", metadata !24, i32 112, metadata !751, i1 false, i1 false, i32 0, i32 0, null, i32 256, i1 false, null, null, i32 0, metadata !44, i32 112} ; [ DW_TAG_subprogram ]
!751 = metadata !{i32 786453, i32 0, metadata !"", i32 0, i32 0, i64 0, i64 0, i64 0, i32 0, null, metadata !752, i32 0, i32 0} ; [ DW_TAG_subroutine_type ]
!752 = metadata !{metadata !55, metadata !753}
!753 = metadata !{i32 786447, i32 0, metadata !"", i32 0, i32 0, i64 64, i64 64, i64 0, i32 64, metadata !740} ; [ DW_TAG_pointer_type ]
!754 = metadata !{i32 786478, i32 0, metadata !22, metadata !"full", metadata !"full", metadata !"_ZNK3hls6streamI7ap_uintILi32EEE4fullEv", metadata !24, i32 117, metadata !751, i1 false, i1 false, i32 0, i32 0, null, i32 256, i1 false, null, null, i32 0, metadata !44, i32 117} ; [ DW_TAG_subprogram ]
!755 = metadata !{i32 786478, i32 0, metadata !22, metadata !"read", metadata !"read", metadata !"_ZN3hls6streamI7ap_uintILi32EEE4readERS2_", metadata !24, i32 123, metadata !745, i1 false, i1 false, i32 0, i32 0, null, i32 256, i1 false, null, null, i32 0, metadata !44, i32 123} ; [ DW_TAG_subprogram ]
!756 = metadata !{i32 786478, i32 0, metadata !22, metadata !"read", metadata !"read", metadata !"_ZN3hls6streamI7ap_uintILi32EEE4readEv", metadata !24, i32 129, metadata !757, i1 false, i1 false, i32 0, i32 0, null, i32 256, i1 false, null, null, i32 0, metadata !44, i32 129} ; [ DW_TAG_subprogram ]
!757 = metadata !{i32 786453, i32 0, metadata !"", i32 0, i32 0, i64 0, i64 0, i64 0, i32 0, null, metadata !758, i32 0, i32 0} ; [ DW_TAG_subroutine_type ]
!758 = metadata !{metadata !27, metadata !732}
!759 = metadata !{i32 786478, i32 0, metadata !22, metadata !"read_nb", metadata !"read_nb", metadata !"_ZN3hls6streamI7ap_uintILi32EEE7read_nbERS2_", metadata !24, i32 136, metadata !760, i1 false, i1 false, i32 0, i32 0, null, i32 256, i1 false, null, null, i32 0, metadata !44, i32 136} ; [ DW_TAG_subprogram ]
!760 = metadata !{i32 786453, i32 0, metadata !"", i32 0, i32 0, i64 0, i64 0, i64 0, i32 0, null, metadata !761, i32 0, i32 0} ; [ DW_TAG_subroutine_type ]
!761 = metadata !{metadata !55, metadata !732, metadata !722}
!762 = metadata !{i32 786478, i32 0, metadata !22, metadata !"write", metadata !"write", metadata !"_ZN3hls6streamI7ap_uintILi32EEE5writeERKS2_", metadata !24, i32 144, metadata !748, i1 false, i1 false, i32 0, i32 0, null, i32 256, i1 false, null, null, i32 0, metadata !44, i32 144} ; [ DW_TAG_subprogram ]
!763 = metadata !{i32 786478, i32 0, metadata !22, metadata !"write_nb", metadata !"write_nb", metadata !"_ZN3hls6streamI7ap_uintILi32EEE8write_nbERKS2_", metadata !24, i32 150, metadata !764, i1 false, i1 false, i32 0, i32 0, null, i32 256, i1 false, null, null, i32 0, metadata !44, i32 150} ; [ DW_TAG_subprogram ]
!764 = metadata !{i32 786453, i32 0, metadata !"", i32 0, i32 0, i64 0, i64 0, i64 0, i32 0, null, metadata !765, i32 0, i32 0} ; [ DW_TAG_subroutine_type ]
!765 = metadata !{metadata !55, metadata !732, metadata !655}
!766 = metadata !{i32 786478, i32 0, metadata !22, metadata !"size", metadata !"size", metadata !"_ZN3hls6streamI7ap_uintILi32EEE4sizeEv", metadata !24, i32 157, metadata !767, i1 false, i1 false, i32 0, i32 0, null, i32 256, i1 false, null, null, i32 0, metadata !44, i32 157} ; [ DW_TAG_subprogram ]
!767 = metadata !{i32 786453, i32 0, metadata !"", i32 0, i32 0, i64 0, i64 0, i64 0, i32 0, null, metadata !768, i32 0, i32 0} ; [ DW_TAG_subroutine_type ]
!768 = metadata !{metadata !99, metadata !732}
!769 = metadata !{metadata !770}
!770 = metadata !{i32 786479, null, metadata !"__STREAM_T__", metadata !27, null, i32 0, i32 0} ; [ DW_TAG_template_type_parameter ]
!771 = metadata !{i32 786447, null, metadata !"", null, i32 0, i64 0, i64 0, i64 0, i32 0, metadata !772} ; [ DW_TAG_pointer_type ]
!772 = metadata !{i32 786438, metadata !23, metadata !"stream<ap_uint<32> >", metadata !24, i32 79, i64 32, i64 32, i32 0, i32 0, null, metadata !773, i32 0, null, metadata !769} ; [ DW_TAG_class_field_type ]
!773 = metadata !{metadata !774}
!774 = metadata !{i32 786438, null, metadata !"ap_uint<32>", metadata !28, i32 180, i64 32, i64 32, i32 0, i32 0, null, metadata !775, i32 0, null, metadata !728} ; [ DW_TAG_class_field_type ]
!775 = metadata !{metadata !776}
!776 = metadata !{i32 786438, null, metadata !"ap_int_base<32, false, true>", metadata !32, i32 1396, i64 32, i64 32, i32 0, i32 0, null, metadata !777, i32 0, null, metadata !647} ; [ DW_TAG_class_field_type ]
!777 = metadata !{metadata !778}
!778 = metadata !{i32 786438, null, metadata !"ssdm_int<32 + 1024 * 0, false>", metadata !36, i32 34, i64 32, i64 32, i32 0, i32 0, null, metadata !779, i32 0, null, metadata !51} ; [ DW_TAG_class_field_type ]
!779 = metadata !{metadata !38}
!780 = metadata !{i32 16, i32 27, metadata !17, null}
!781 = metadata !{i32 790531, metadata !782, metadata !"strm_out.V.V", null, i32 17, metadata !771, i32 0, i32 0} ; [ DW_TAG_arg_variable_field ]
!782 = metadata !{i32 786689, metadata !17, metadata !"strm_out", metadata !18, i32 33554449, metadata !21, i32 0, i32 0} ; [ DW_TAG_arg_variable ]
!783 = metadata !{i32 17, i32 27, metadata !17, null}
!784 = metadata !{i32 790531, metadata !785, metadata !"stream<ap_uint<32> >.V.V", null, i32 129, metadata !788, i32 0, i32 0} ; [ DW_TAG_arg_variable_field ]
!785 = metadata !{i32 786689, metadata !786, metadata !"this", metadata !24, i32 16777345, metadata !787, i32 64, i32 0} ; [ DW_TAG_arg_variable ]
!786 = metadata !{i32 786478, i32 0, metadata !23, metadata !"read", metadata !"read", metadata !"_ZN3hls6streamI7ap_uintILi32EEE4readEv", metadata !24, i32 129, metadata !757, i1 false, i1 true, i32 0, i32 0, null, i32 256, i1 false, null, null, metadata !756, metadata !44, i32 129} ; [ DW_TAG_subprogram ]
!787 = metadata !{i32 786447, null, metadata !"", null, i32 0, i64 64, i64 64, i64 0, i32 0, metadata !22} ; [ DW_TAG_pointer_type ]
!788 = metadata !{i32 786447, null, metadata !"", null, i32 0, i64 64, i64 64, i64 0, i32 0, metadata !772} ; [ DW_TAG_pointer_type ]
!789 = metadata !{i32 129, i32 56, metadata !786, metadata !790}
!790 = metadata !{i32 26, i32 7, metadata !791, null}
!791 = metadata !{i32 786443, metadata !17, i32 19, i32 1, metadata !18, i32 0} ; [ DW_TAG_lexical_block ]
!792 = metadata !{i32 131, i32 9, metadata !793, metadata !790}
!793 = metadata !{i32 786443, metadata !786, i32 129, i32 63, metadata !24, i32 11} ; [ DW_TAG_lexical_block ]
!794 = metadata !{i32 790529, metadata !795, metadata !"tmp.V", null, i32 130, metadata !774, i32 0, i32 0} ; [ DW_TAG_auto_variable_field ]
!795 = metadata !{i32 786688, metadata !793, metadata !"tmp", metadata !24, i32 130, metadata !722, i32 0, i32 0} ; [ DW_TAG_auto_variable ]
!796 = metadata !{i32 790529, metadata !797, metadata !"a.V", null, i32 20, metadata !774, i32 0, i32 0} ; [ DW_TAG_auto_variable_field ]
!797 = metadata !{i32 786688, metadata !791, metadata !"a", metadata !18, i32 20, metadata !798, i32 0, i32 0} ; [ DW_TAG_auto_variable ]
!798 = metadata !{i32 786454, null, metadata !"bit32_t", metadata !18, i32 11, i64 0, i64 0, i64 0, i32 0, metadata !27} ; [ DW_TAG_typedef ]
!799 = metadata !{i32 277, i32 10, metadata !800, metadata !790}
!800 = metadata !{i32 786443, metadata !801, i32 276, i32 92, metadata !28, i32 10} ; [ DW_TAG_lexical_block ]
!801 = metadata !{i32 786478, i32 0, null, metadata !"operator=", metadata !"operator=", metadata !"_ZN7ap_uintILi32EEaSERKS0_", metadata !28, i32 276, metadata !724, i1 false, i1 true, i32 0, i32 0, null, i32 256, i1 false, null, null, metadata !723, metadata !44, i32 276} ; [ DW_TAG_subprogram ]
!802 = metadata !{i32 131, i32 9, metadata !793, metadata !803}
!803 = metadata !{i32 27, i32 7, metadata !791, null}
!804 = metadata !{i32 790529, metadata !805, metadata !"b.V", null, i32 20, metadata !774, i32 0, i32 0} ; [ DW_TAG_auto_variable_field ]
!805 = metadata !{i32 786688, metadata !791, metadata !"b", metadata !18, i32 20, metadata !798, i32 0, i32 0} ; [ DW_TAG_auto_variable ]
!806 = metadata !{i32 277, i32 10, metadata !800, metadata !803}
!807 = metadata !{i32 226, i32 91, metadata !808, metadata !1103}
!808 = metadata !{i32 786443, metadata !809, i32 226, i32 89, metadata !28, i32 2} ; [ DW_TAG_lexical_block ]
!809 = metadata !{i32 786478, i32 0, null, metadata !"ap_uint<33, false>", metadata !"ap_uint<33, false>", metadata !"_ZN7ap_uintILi32EEC2ILi33ELb0EEERK11ap_int_baseIXT_EXT0_EXleT_Li64EEE", metadata !28, i32 226, metadata !810, i1 false, i1 true, i32 0, i32 0, null, i32 256, i1 false, null, metadata !841, null, metadata !44, i32 226} ; [ DW_TAG_subprogram ]
!810 = metadata !{i32 786453, i32 0, metadata !"", i32 0, i32 0, i64 0, i64 0, i64 0, i32 0, null, metadata !811, i32 0, i32 0} ; [ DW_TAG_subroutine_type ]
!811 = metadata !{null, metadata !651, metadata !812}
!812 = metadata !{i32 786448, null, null, null, i32 0, i64 0, i64 0, i64 0, i32 0, metadata !813} ; [ DW_TAG_reference_type ]
!813 = metadata !{i32 786470, null, metadata !"", null, i32 0, i64 0, i64 0, i64 0, i32 0, metadata !814} ; [ DW_TAG_const_type ]
!814 = metadata !{i32 786434, null, metadata !"ap_int_base<33, false, true>", metadata !32, i32 1396, i64 64, i64 64, i32 0, i32 0, null, metadata !815, i32 0, null, metadata !1102} ; [ DW_TAG_class_type ]
!815 = metadata !{metadata !816, metadata !831, metadata !835, metadata !838, metadata !842, metadata !845, metadata !848, metadata !854, metadata !857, metadata !860, metadata !863, metadata !866, metadata !869, metadata !872, metadata !875, metadata !878, metadata !881, metadata !884, metadata !887, metadata !890, metadata !893, metadata !896, metadata !899, metadata !902, metadata !906, metadata !909, metadata !912, metadata !913, metadata !917, metadata !920, metadata !923, metadata !926, metadata !929, metadata !932, metadata !935, metadata !938, metadata !941, metadata !944, metadata !947, metadata !950, metadata !958, metadata !961, metadata !962, metadata !963, metadata !964, metadata !965, metadata !968, metadata !971, metadata !974, metadata !977, metadata !980, metadata !983, metadata !986, metadata !987, metadata !991, metadata !994, metadata !995, metadata !996, metadata !997, metadata !998, metadata !999, metadata !1002, metadata !1003, metadata !1006, metadata !1007, metadata !1008, metadata !1009, metadata !1010, metadata !1011, metadata !1014, metadata !1015, metadata !1016, metadata !1019, metadata !1020, metadata !1023, metadata !1024, metadata !1027, metadata !1031, metadata !1032, metadata !1035, metadata !1036, metadata !1074, metadata !1075, metadata !1076, metadata !1077, metadata !1080, metadata !1081, metadata !1082, metadata !1083, metadata !1084, metadata !1085, metadata !1086, metadata !1087, metadata !1088, metadata !1089, metadata !1090, metadata !1091, metadata !1094, metadata !1097, metadata !1100, metadata !1101}
!816 = metadata !{i32 786460, metadata !814, null, metadata !32, i32 0, i64 0, i64 0, i64 0, i32 0, metadata !817} ; [ DW_TAG_inheritance ]
!817 = metadata !{i32 786434, null, metadata !"ssdm_int<33 + 1024 * 0, false>", metadata !36, i32 35, i64 64, i64 64, i32 0, i32 0, null, metadata !818, i32 0, null, metadata !830} ; [ DW_TAG_class_type ]
!818 = metadata !{metadata !819, metadata !821, metadata !825}
!819 = metadata !{i32 786445, metadata !817, metadata !"V", metadata !36, i32 35, i64 33, i64 64, i64 0, i32 0, metadata !820} ; [ DW_TAG_member ]
!820 = metadata !{i32 786468, null, metadata !"uint33", null, i32 0, i64 33, i64 64, i64 0, i32 0, i32 7} ; [ DW_TAG_base_type ]
!821 = metadata !{i32 786478, i32 0, metadata !817, metadata !"ssdm_int", metadata !"ssdm_int", metadata !"", metadata !36, i32 35, metadata !822, i1 false, i1 false, i32 0, i32 0, null, i32 256, i1 false, null, null, i32 0, metadata !44, i32 35} ; [ DW_TAG_subprogram ]
!822 = metadata !{i32 786453, i32 0, metadata !"", i32 0, i32 0, i64 0, i64 0, i64 0, i32 0, null, metadata !823, i32 0, i32 0} ; [ DW_TAG_subroutine_type ]
!823 = metadata !{null, metadata !824}
!824 = metadata !{i32 786447, i32 0, metadata !"", i32 0, i32 0, i64 64, i64 64, i64 0, i32 64, metadata !817} ; [ DW_TAG_pointer_type ]
!825 = metadata !{i32 786478, i32 0, metadata !817, metadata !"ssdm_int", metadata !"ssdm_int", metadata !"", metadata !36, i32 35, metadata !826, i1 false, i1 false, i32 0, i32 0, null, i32 320, i1 false, null, null, i32 0, metadata !44, i32 35} ; [ DW_TAG_subprogram ]
!826 = metadata !{i32 786453, i32 0, metadata !"", i32 0, i32 0, i64 0, i64 0, i64 0, i32 0, null, metadata !827, i32 0, i32 0} ; [ DW_TAG_subroutine_type ]
!827 = metadata !{null, metadata !824, metadata !828}
!828 = metadata !{i32 786448, null, null, null, i32 0, i64 0, i64 0, i64 0, i32 0, metadata !829} ; [ DW_TAG_reference_type ]
!829 = metadata !{i32 786470, null, metadata !"", null, i32 0, i64 0, i64 0, i64 0, i32 0, metadata !817} ; [ DW_TAG_const_type ]
!830 = metadata !{metadata !274, metadata !54}
!831 = metadata !{i32 786478, i32 0, metadata !814, metadata !"ap_int_base", metadata !"ap_int_base", metadata !"", metadata !32, i32 1437, metadata !832, i1 false, i1 false, i32 0, i32 0, null, i32 256, i1 false, null, null, i32 0, metadata !44, i32 1437} ; [ DW_TAG_subprogram ]
!832 = metadata !{i32 786453, i32 0, metadata !"", i32 0, i32 0, i64 0, i64 0, i64 0, i32 0, null, metadata !833, i32 0, i32 0} ; [ DW_TAG_subroutine_type ]
!833 = metadata !{null, metadata !834}
!834 = metadata !{i32 786447, i32 0, metadata !"", i32 0, i32 0, i64 64, i64 64, i64 0, i32 64, metadata !814} ; [ DW_TAG_pointer_type ]
!835 = metadata !{i32 786478, i32 0, metadata !814, metadata !"ap_int_base<32, false>", metadata !"ap_int_base<32, false>", metadata !"", metadata !32, i32 1449, metadata !836, i1 false, i1 false, i32 0, i32 0, null, i32 256, i1 false, null, metadata !65, i32 0, metadata !44, i32 1449} ; [ DW_TAG_subprogram ]
!836 = metadata !{i32 786453, i32 0, metadata !"", i32 0, i32 0, i64 0, i64 0, i64 0, i32 0, null, metadata !837, i32 0, i32 0} ; [ DW_TAG_subroutine_type ]
!837 = metadata !{null, metadata !834, metadata !63}
!838 = metadata !{i32 786478, i32 0, metadata !814, metadata !"ap_int_base<33, false>", metadata !"ap_int_base<33, false>", metadata !"", metadata !32, i32 1449, metadata !839, i1 false, i1 false, i32 0, i32 0, null, i32 256, i1 false, null, metadata !841, i32 0, metadata !44, i32 1449} ; [ DW_TAG_subprogram ]
!839 = metadata !{i32 786453, i32 0, metadata !"", i32 0, i32 0, i64 0, i64 0, i64 0, i32 0, null, metadata !840, i32 0, i32 0} ; [ DW_TAG_subroutine_type ]
!840 = metadata !{null, metadata !834, metadata !812}
!841 = metadata !{metadata !286, metadata !67}
!842 = metadata !{i32 786478, i32 0, metadata !814, metadata !"ap_int_base<33, true>", metadata !"ap_int_base<33, true>", metadata !"", metadata !32, i32 1449, metadata !843, i1 false, i1 false, i32 0, i32 0, null, i32 256, i1 false, null, metadata !285, i32 0, metadata !44, i32 1449} ; [ DW_TAG_subprogram ]
!843 = metadata !{i32 786453, i32 0, metadata !"", i32 0, i32 0, i64 0, i64 0, i64 0, i32 0, null, metadata !844, i32 0, i32 0} ; [ DW_TAG_subroutine_type ]
!844 = metadata !{null, metadata !834, metadata !283}
!845 = metadata !{i32 786478, i32 0, metadata !814, metadata !"ap_int_base<32, false>", metadata !"ap_int_base<32, false>", metadata !"", metadata !32, i32 1452, metadata !846, i1 false, i1 false, i32 0, i32 0, null, i32 256, i1 false, null, metadata !65, i32 0, metadata !44, i32 1452} ; [ DW_TAG_subprogram ]
!846 = metadata !{i32 786453, i32 0, metadata !"", i32 0, i32 0, i64 0, i64 0, i64 0, i32 0, null, metadata !847, i32 0, i32 0} ; [ DW_TAG_subroutine_type ]
!847 = metadata !{null, metadata !834, metadata !71}
!848 = metadata !{i32 786478, i32 0, metadata !814, metadata !"ap_int_base<33, false>", metadata !"ap_int_base<33, false>", metadata !"", metadata !32, i32 1452, metadata !849, i1 false, i1 false, i32 0, i32 0, null, i32 256, i1 false, null, metadata !841, i32 0, metadata !44, i32 1452} ; [ DW_TAG_subprogram ]
!849 = metadata !{i32 786453, i32 0, metadata !"", i32 0, i32 0, i64 0, i64 0, i64 0, i32 0, null, metadata !850, i32 0, i32 0} ; [ DW_TAG_subroutine_type ]
!850 = metadata !{null, metadata !834, metadata !851}
!851 = metadata !{i32 786448, null, null, null, i32 0, i64 0, i64 0, i64 0, i32 0, metadata !852} ; [ DW_TAG_reference_type ]
!852 = metadata !{i32 786470, null, metadata !"", null, i32 0, i64 0, i64 0, i64 0, i32 0, metadata !853} ; [ DW_TAG_const_type ]
!853 = metadata !{i32 786485, null, metadata !"", null, i32 0, i64 0, i64 0, i64 0, i32 0, metadata !814} ; [ DW_TAG_volatile_type ]
!854 = metadata !{i32 786478, i32 0, metadata !814, metadata !"ap_int_base<33, true>", metadata !"ap_int_base<33, true>", metadata !"", metadata !32, i32 1452, metadata !855, i1 false, i1 false, i32 0, i32 0, null, i32 256, i1 false, null, metadata !285, i32 0, metadata !44, i32 1452} ; [ DW_TAG_subprogram ]
!855 = metadata !{i32 786453, i32 0, metadata !"", i32 0, i32 0, i64 0, i64 0, i64 0, i32 0, null, metadata !856, i32 0, i32 0} ; [ DW_TAG_subroutine_type ]
!856 = metadata !{null, metadata !834, metadata !291}
!857 = metadata !{i32 786478, i32 0, metadata !814, metadata !"ap_int_base", metadata !"ap_int_base", metadata !"", metadata !32, i32 1459, metadata !858, i1 false, i1 false, i32 0, i32 0, null, i32 384, i1 false, null, null, i32 0, metadata !44, i32 1459} ; [ DW_TAG_subprogram ]
!858 = metadata !{i32 786453, i32 0, metadata !"", i32 0, i32 0, i64 0, i64 0, i64 0, i32 0, null, metadata !859, i32 0, i32 0} ; [ DW_TAG_subroutine_type ]
!859 = metadata !{null, metadata !834, metadata !55}
!860 = metadata !{i32 786478, i32 0, metadata !814, metadata !"ap_int_base", metadata !"ap_int_base", metadata !"", metadata !32, i32 1460, metadata !861, i1 false, i1 false, i32 0, i32 0, null, i32 384, i1 false, null, null, i32 0, metadata !44, i32 1460} ; [ DW_TAG_subprogram ]
!861 = metadata !{i32 786453, i32 0, metadata !"", i32 0, i32 0, i64 0, i64 0, i64 0, i32 0, null, metadata !862, i32 0, i32 0} ; [ DW_TAG_subroutine_type ]
!862 = metadata !{null, metadata !834, metadata !80}
!863 = metadata !{i32 786478, i32 0, metadata !814, metadata !"ap_int_base", metadata !"ap_int_base", metadata !"", metadata !32, i32 1461, metadata !864, i1 false, i1 false, i32 0, i32 0, null, i32 384, i1 false, null, null, i32 0, metadata !44, i32 1461} ; [ DW_TAG_subprogram ]
!864 = metadata !{i32 786453, i32 0, metadata !"", i32 0, i32 0, i64 0, i64 0, i64 0, i32 0, null, metadata !865, i32 0, i32 0} ; [ DW_TAG_subroutine_type ]
!865 = metadata !{null, metadata !834, metadata !84}
!866 = metadata !{i32 786478, i32 0, metadata !814, metadata !"ap_int_base", metadata !"ap_int_base", metadata !"", metadata !32, i32 1462, metadata !867, i1 false, i1 false, i32 0, i32 0, null, i32 384, i1 false, null, null, i32 0, metadata !44, i32 1462} ; [ DW_TAG_subprogram ]
!867 = metadata !{i32 786453, i32 0, metadata !"", i32 0, i32 0, i64 0, i64 0, i64 0, i32 0, null, metadata !868, i32 0, i32 0} ; [ DW_TAG_subroutine_type ]
!868 = metadata !{null, metadata !834, metadata !88}
!869 = metadata !{i32 786478, i32 0, metadata !814, metadata !"ap_int_base", metadata !"ap_int_base", metadata !"", metadata !32, i32 1463, metadata !870, i1 false, i1 false, i32 0, i32 0, null, i32 384, i1 false, null, null, i32 0, metadata !44, i32 1463} ; [ DW_TAG_subprogram ]
!870 = metadata !{i32 786453, i32 0, metadata !"", i32 0, i32 0, i64 0, i64 0, i64 0, i32 0, null, metadata !871, i32 0, i32 0} ; [ DW_TAG_subroutine_type ]
!871 = metadata !{null, metadata !834, metadata !92}
!872 = metadata !{i32 786478, i32 0, metadata !814, metadata !"ap_int_base", metadata !"ap_int_base", metadata !"", metadata !32, i32 1464, metadata !873, i1 false, i1 false, i32 0, i32 0, null, i32 384, i1 false, null, null, i32 0, metadata !44, i32 1464} ; [ DW_TAG_subprogram ]
!873 = metadata !{i32 786453, i32 0, metadata !"", i32 0, i32 0, i64 0, i64 0, i64 0, i32 0, null, metadata !874, i32 0, i32 0} ; [ DW_TAG_subroutine_type ]
!874 = metadata !{null, metadata !834, metadata !53}
!875 = metadata !{i32 786478, i32 0, metadata !814, metadata !"ap_int_base", metadata !"ap_int_base", metadata !"", metadata !32, i32 1465, metadata !876, i1 false, i1 false, i32 0, i32 0, null, i32 384, i1 false, null, null, i32 0, metadata !44, i32 1465} ; [ DW_TAG_subprogram ]
!876 = metadata !{i32 786453, i32 0, metadata !"", i32 0, i32 0, i64 0, i64 0, i64 0, i32 0, null, metadata !877, i32 0, i32 0} ; [ DW_TAG_subroutine_type ]
!877 = metadata !{null, metadata !834, metadata !99}
!878 = metadata !{i32 786478, i32 0, metadata !814, metadata !"ap_int_base", metadata !"ap_int_base", metadata !"", metadata !32, i32 1466, metadata !879, i1 false, i1 false, i32 0, i32 0, null, i32 384, i1 false, null, null, i32 0, metadata !44, i32 1466} ; [ DW_TAG_subprogram ]
!879 = metadata !{i32 786453, i32 0, metadata !"", i32 0, i32 0, i64 0, i64 0, i64 0, i32 0, null, metadata !880, i32 0, i32 0} ; [ DW_TAG_subroutine_type ]
!880 = metadata !{null, metadata !834, metadata !103}
!881 = metadata !{i32 786478, i32 0, metadata !814, metadata !"ap_int_base", metadata !"ap_int_base", metadata !"", metadata !32, i32 1467, metadata !882, i1 false, i1 false, i32 0, i32 0, null, i32 384, i1 false, null, null, i32 0, metadata !44, i32 1467} ; [ DW_TAG_subprogram ]
!882 = metadata !{i32 786453, i32 0, metadata !"", i32 0, i32 0, i64 0, i64 0, i64 0, i32 0, null, metadata !883, i32 0, i32 0} ; [ DW_TAG_subroutine_type ]
!883 = metadata !{null, metadata !834, metadata !107}
!884 = metadata !{i32 786478, i32 0, metadata !814, metadata !"ap_int_base", metadata !"ap_int_base", metadata !"", metadata !32, i32 1468, metadata !885, i1 false, i1 false, i32 0, i32 0, null, i32 384, i1 false, null, null, i32 0, metadata !44, i32 1468} ; [ DW_TAG_subprogram ]
!885 = metadata !{i32 786453, i32 0, metadata !"", i32 0, i32 0, i64 0, i64 0, i64 0, i32 0, null, metadata !886, i32 0, i32 0} ; [ DW_TAG_subroutine_type ]
!886 = metadata !{null, metadata !834, metadata !111}
!887 = metadata !{i32 786478, i32 0, metadata !814, metadata !"ap_int_base", metadata !"ap_int_base", metadata !"", metadata !32, i32 1469, metadata !888, i1 false, i1 false, i32 0, i32 0, null, i32 384, i1 false, null, null, i32 0, metadata !44, i32 1469} ; [ DW_TAG_subprogram ]
!888 = metadata !{i32 786453, i32 0, metadata !"", i32 0, i32 0, i64 0, i64 0, i64 0, i32 0, null, metadata !889, i32 0, i32 0} ; [ DW_TAG_subroutine_type ]
!889 = metadata !{null, metadata !834, metadata !116}
!890 = metadata !{i32 786478, i32 0, metadata !814, metadata !"ap_int_base", metadata !"ap_int_base", metadata !"", metadata !32, i32 1470, metadata !891, i1 false, i1 false, i32 0, i32 0, null, i32 384, i1 false, null, null, i32 0, metadata !44, i32 1470} ; [ DW_TAG_subprogram ]
!891 = metadata !{i32 786453, i32 0, metadata !"", i32 0, i32 0, i64 0, i64 0, i64 0, i32 0, null, metadata !892, i32 0, i32 0} ; [ DW_TAG_subroutine_type ]
!892 = metadata !{null, metadata !834, metadata !121}
!893 = metadata !{i32 786478, i32 0, metadata !814, metadata !"ap_int_base", metadata !"ap_int_base", metadata !"", metadata !32, i32 1471, metadata !894, i1 false, i1 false, i32 0, i32 0, null, i32 384, i1 false, null, null, i32 0, metadata !44, i32 1471} ; [ DW_TAG_subprogram ]
!894 = metadata !{i32 786453, i32 0, metadata !"", i32 0, i32 0, i64 0, i64 0, i64 0, i32 0, null, metadata !895, i32 0, i32 0} ; [ DW_TAG_subroutine_type ]
!895 = metadata !{null, metadata !834, metadata !125}
!896 = metadata !{i32 786478, i32 0, metadata !814, metadata !"ap_int_base", metadata !"ap_int_base", metadata !"", metadata !32, i32 1498, metadata !897, i1 false, i1 false, i32 0, i32 0, null, i32 256, i1 false, null, null, i32 0, metadata !44, i32 1498} ; [ DW_TAG_subprogram ]
!897 = metadata !{i32 786453, i32 0, metadata !"", i32 0, i32 0, i64 0, i64 0, i64 0, i32 0, null, metadata !898, i32 0, i32 0} ; [ DW_TAG_subroutine_type ]
!898 = metadata !{null, metadata !834, metadata !129}
!899 = metadata !{i32 786478, i32 0, metadata !814, metadata !"ap_int_base", metadata !"ap_int_base", metadata !"", metadata !32, i32 1505, metadata !900, i1 false, i1 false, i32 0, i32 0, null, i32 256, i1 false, null, null, i32 0, metadata !44, i32 1505} ; [ DW_TAG_subprogram ]
!900 = metadata !{i32 786453, i32 0, metadata !"", i32 0, i32 0, i64 0, i64 0, i64 0, i32 0, null, metadata !901, i32 0, i32 0} ; [ DW_TAG_subroutine_type ]
!901 = metadata !{null, metadata !834, metadata !129, metadata !80}
!902 = metadata !{i32 786478, i32 0, metadata !814, metadata !"read", metadata !"read", metadata !"_ZNV11ap_int_baseILi33ELb0ELb1EE4readEv", metadata !32, i32 1526, metadata !903, i1 false, i1 false, i32 0, i32 0, null, i32 256, i1 false, null, null, i32 0, metadata !44, i32 1526} ; [ DW_TAG_subprogram ]
!903 = metadata !{i32 786453, i32 0, metadata !"", i32 0, i32 0, i64 0, i64 0, i64 0, i32 0, null, metadata !904, i32 0, i32 0} ; [ DW_TAG_subroutine_type ]
!904 = metadata !{metadata !814, metadata !905}
!905 = metadata !{i32 786447, i32 0, metadata !"", i32 0, i32 0, i64 64, i64 64, i64 0, i32 64, metadata !853} ; [ DW_TAG_pointer_type ]
!906 = metadata !{i32 786478, i32 0, metadata !814, metadata !"write", metadata !"write", metadata !"_ZNV11ap_int_baseILi33ELb0ELb1EE5writeERKS0_", metadata !32, i32 1532, metadata !907, i1 false, i1 false, i32 0, i32 0, null, i32 256, i1 false, null, null, i32 0, metadata !44, i32 1532} ; [ DW_TAG_subprogram ]
!907 = metadata !{i32 786453, i32 0, metadata !"", i32 0, i32 0, i64 0, i64 0, i64 0, i32 0, null, metadata !908, i32 0, i32 0} ; [ DW_TAG_subroutine_type ]
!908 = metadata !{null, metadata !905, metadata !812}
!909 = metadata !{i32 786478, i32 0, metadata !814, metadata !"operator=", metadata !"operator=", metadata !"_ZNV11ap_int_baseILi33ELb0ELb1EEaSERVKS0_", metadata !32, i32 1544, metadata !910, i1 false, i1 false, i32 0, i32 0, null, i32 256, i1 false, null, null, i32 0, metadata !44, i32 1544} ; [ DW_TAG_subprogram ]
!910 = metadata !{i32 786453, i32 0, metadata !"", i32 0, i32 0, i64 0, i64 0, i64 0, i32 0, null, metadata !911, i32 0, i32 0} ; [ DW_TAG_subroutine_type ]
!911 = metadata !{null, metadata !905, metadata !851}
!912 = metadata !{i32 786478, i32 0, metadata !814, metadata !"operator=", metadata !"operator=", metadata !"_ZNV11ap_int_baseILi33ELb0ELb1EEaSERKS0_", metadata !32, i32 1553, metadata !907, i1 false, i1 false, i32 0, i32 0, null, i32 256, i1 false, null, null, i32 0, metadata !44, i32 1553} ; [ DW_TAG_subprogram ]
!913 = metadata !{i32 786478, i32 0, metadata !814, metadata !"operator=", metadata !"operator=", metadata !"_ZN11ap_int_baseILi33ELb0ELb1EEaSERVKS0_", metadata !32, i32 1576, metadata !914, i1 false, i1 false, i32 0, i32 0, null, i32 256, i1 false, null, null, i32 0, metadata !44, i32 1576} ; [ DW_TAG_subprogram ]
!914 = metadata !{i32 786453, i32 0, metadata !"", i32 0, i32 0, i64 0, i64 0, i64 0, i32 0, null, metadata !915, i32 0, i32 0} ; [ DW_TAG_subroutine_type ]
!915 = metadata !{metadata !916, metadata !834, metadata !851}
!916 = metadata !{i32 786448, null, null, null, i32 0, i64 0, i64 0, i64 0, i32 0, metadata !814} ; [ DW_TAG_reference_type ]
!917 = metadata !{i32 786478, i32 0, metadata !814, metadata !"operator=", metadata !"operator=", metadata !"_ZN11ap_int_baseILi33ELb0ELb1EEaSERKS0_", metadata !32, i32 1581, metadata !918, i1 false, i1 false, i32 0, i32 0, null, i32 256, i1 false, null, null, i32 0, metadata !44, i32 1581} ; [ DW_TAG_subprogram ]
!918 = metadata !{i32 786453, i32 0, metadata !"", i32 0, i32 0, i64 0, i64 0, i64 0, i32 0, null, metadata !919, i32 0, i32 0} ; [ DW_TAG_subroutine_type ]
!919 = metadata !{metadata !916, metadata !834, metadata !812}
!920 = metadata !{i32 786478, i32 0, metadata !814, metadata !"operator=", metadata !"operator=", metadata !"_ZN11ap_int_baseILi33ELb0ELb1EEaSEPKc", metadata !32, i32 1585, metadata !921, i1 false, i1 false, i32 0, i32 0, null, i32 256, i1 false, null, null, i32 0, metadata !44, i32 1585} ; [ DW_TAG_subprogram ]
!921 = metadata !{i32 786453, i32 0, metadata !"", i32 0, i32 0, i64 0, i64 0, i64 0, i32 0, null, metadata !922, i32 0, i32 0} ; [ DW_TAG_subroutine_type ]
!922 = metadata !{metadata !916, metadata !834, metadata !129}
!923 = metadata !{i32 786478, i32 0, metadata !814, metadata !"set", metadata !"set", metadata !"_ZN11ap_int_baseILi33ELb0ELb1EE3setEPKca", metadata !32, i32 1593, metadata !924, i1 false, i1 false, i32 0, i32 0, null, i32 256, i1 false, null, null, i32 0, metadata !44, i32 1593} ; [ DW_TAG_subprogram ]
!924 = metadata !{i32 786453, i32 0, metadata !"", i32 0, i32 0, i64 0, i64 0, i64 0, i32 0, null, metadata !925, i32 0, i32 0} ; [ DW_TAG_subroutine_type ]
!925 = metadata !{metadata !916, metadata !834, metadata !129, metadata !80}
!926 = metadata !{i32 786478, i32 0, metadata !814, metadata !"operator=", metadata !"operator=", metadata !"_ZN11ap_int_baseILi33ELb0ELb1EEaSEc", metadata !32, i32 1607, metadata !927, i1 false, i1 false, i32 0, i32 0, null, i32 256, i1 false, null, null, i32 0, metadata !44, i32 1607} ; [ DW_TAG_subprogram ]
!927 = metadata !{i32 786453, i32 0, metadata !"", i32 0, i32 0, i64 0, i64 0, i64 0, i32 0, null, metadata !928, i32 0, i32 0} ; [ DW_TAG_subroutine_type ]
!928 = metadata !{metadata !916, metadata !834, metadata !131}
!929 = metadata !{i32 786478, i32 0, metadata !814, metadata !"operator=", metadata !"operator=", metadata !"_ZN11ap_int_baseILi33ELb0ELb1EEaSEh", metadata !32, i32 1608, metadata !930, i1 false, i1 false, i32 0, i32 0, null, i32 256, i1 false, null, null, i32 0, metadata !44, i32 1608} ; [ DW_TAG_subprogram ]
!930 = metadata !{i32 786453, i32 0, metadata !"", i32 0, i32 0, i64 0, i64 0, i64 0, i32 0, null, metadata !931, i32 0, i32 0} ; [ DW_TAG_subroutine_type ]
!931 = metadata !{metadata !916, metadata !834, metadata !84}
!932 = metadata !{i32 786478, i32 0, metadata !814, metadata !"operator=", metadata !"operator=", metadata !"_ZN11ap_int_baseILi33ELb0ELb1EEaSEs", metadata !32, i32 1609, metadata !933, i1 false, i1 false, i32 0, i32 0, null, i32 256, i1 false, null, null, i32 0, metadata !44, i32 1609} ; [ DW_TAG_subprogram ]
!933 = metadata !{i32 786453, i32 0, metadata !"", i32 0, i32 0, i64 0, i64 0, i64 0, i32 0, null, metadata !934, i32 0, i32 0} ; [ DW_TAG_subroutine_type ]
!934 = metadata !{metadata !916, metadata !834, metadata !88}
!935 = metadata !{i32 786478, i32 0, metadata !814, metadata !"operator=", metadata !"operator=", metadata !"_ZN11ap_int_baseILi33ELb0ELb1EEaSEt", metadata !32, i32 1610, metadata !936, i1 false, i1 false, i32 0, i32 0, null, i32 256, i1 false, null, null, i32 0, metadata !44, i32 1610} ; [ DW_TAG_subprogram ]
!936 = metadata !{i32 786453, i32 0, metadata !"", i32 0, i32 0, i64 0, i64 0, i64 0, i32 0, null, metadata !937, i32 0, i32 0} ; [ DW_TAG_subroutine_type ]
!937 = metadata !{metadata !916, metadata !834, metadata !92}
!938 = metadata !{i32 786478, i32 0, metadata !814, metadata !"operator=", metadata !"operator=", metadata !"_ZN11ap_int_baseILi33ELb0ELb1EEaSEi", metadata !32, i32 1611, metadata !939, i1 false, i1 false, i32 0, i32 0, null, i32 256, i1 false, null, null, i32 0, metadata !44, i32 1611} ; [ DW_TAG_subprogram ]
!939 = metadata !{i32 786453, i32 0, metadata !"", i32 0, i32 0, i64 0, i64 0, i64 0, i32 0, null, metadata !940, i32 0, i32 0} ; [ DW_TAG_subroutine_type ]
!940 = metadata !{metadata !916, metadata !834, metadata !53}
!941 = metadata !{i32 786478, i32 0, metadata !814, metadata !"operator=", metadata !"operator=", metadata !"_ZN11ap_int_baseILi33ELb0ELb1EEaSEj", metadata !32, i32 1612, metadata !942, i1 false, i1 false, i32 0, i32 0, null, i32 256, i1 false, null, null, i32 0, metadata !44, i32 1612} ; [ DW_TAG_subprogram ]
!942 = metadata !{i32 786453, i32 0, metadata !"", i32 0, i32 0, i64 0, i64 0, i64 0, i32 0, null, metadata !943, i32 0, i32 0} ; [ DW_TAG_subroutine_type ]
!943 = metadata !{metadata !916, metadata !834, metadata !99}
!944 = metadata !{i32 786478, i32 0, metadata !814, metadata !"operator=", metadata !"operator=", metadata !"_ZN11ap_int_baseILi33ELb0ELb1EEaSEx", metadata !32, i32 1613, metadata !945, i1 false, i1 false, i32 0, i32 0, null, i32 256, i1 false, null, null, i32 0, metadata !44, i32 1613} ; [ DW_TAG_subprogram ]
!945 = metadata !{i32 786453, i32 0, metadata !"", i32 0, i32 0, i64 0, i64 0, i64 0, i32 0, null, metadata !946, i32 0, i32 0} ; [ DW_TAG_subroutine_type ]
!946 = metadata !{metadata !916, metadata !834, metadata !111}
!947 = metadata !{i32 786478, i32 0, metadata !814, metadata !"operator=", metadata !"operator=", metadata !"_ZN11ap_int_baseILi33ELb0ELb1EEaSEy", metadata !32, i32 1614, metadata !948, i1 false, i1 false, i32 0, i32 0, null, i32 256, i1 false, null, null, i32 0, metadata !44, i32 1614} ; [ DW_TAG_subprogram ]
!948 = metadata !{i32 786453, i32 0, metadata !"", i32 0, i32 0, i64 0, i64 0, i64 0, i32 0, null, metadata !949, i32 0, i32 0} ; [ DW_TAG_subroutine_type ]
!949 = metadata !{metadata !916, metadata !834, metadata !116}
!950 = metadata !{i32 786478, i32 0, metadata !814, metadata !"operator unsigned long long", metadata !"operator unsigned long long", metadata !"_ZNK11ap_int_baseILi33ELb0ELb1EEcvyEv", metadata !32, i32 1652, metadata !951, i1 false, i1 false, i32 0, i32 0, null, i32 256, i1 false, null, null, i32 0, metadata !44, i32 1652} ; [ DW_TAG_subprogram ]
!951 = metadata !{i32 786453, i32 0, metadata !"", i32 0, i32 0, i64 0, i64 0, i64 0, i32 0, null, metadata !952, i32 0, i32 0} ; [ DW_TAG_subroutine_type ]
!952 = metadata !{metadata !953, metadata !957}
!953 = metadata !{i32 786454, metadata !814, metadata !"RetType", metadata !32, i32 1401, i64 0, i64 0, i64 0, i32 0, metadata !954} ; [ DW_TAG_typedef ]
!954 = metadata !{i32 786454, metadata !955, metadata !"Type", metadata !32, i32 1362, i64 0, i64 0, i64 0, i32 0, metadata !116} ; [ DW_TAG_typedef ]
!955 = metadata !{i32 786434, null, metadata !"retval<5, false>", metadata !32, i32 1361, i64 8, i64 8, i32 0, i32 0, null, metadata !189, i32 0, null, metadata !956} ; [ DW_TAG_class_type ]
!956 = metadata !{metadata !394, metadata !54}
!957 = metadata !{i32 786447, i32 0, metadata !"", i32 0, i32 0, i64 64, i64 64, i64 0, i32 64, metadata !813} ; [ DW_TAG_pointer_type ]
!958 = metadata !{i32 786478, i32 0, metadata !814, metadata !"to_bool", metadata !"to_bool", metadata !"_ZNK11ap_int_baseILi33ELb0ELb1EE7to_boolEv", metadata !32, i32 1658, metadata !959, i1 false, i1 false, i32 0, i32 0, null, i32 256, i1 false, null, null, i32 0, metadata !44, i32 1658} ; [ DW_TAG_subprogram ]
!959 = metadata !{i32 786453, i32 0, metadata !"", i32 0, i32 0, i64 0, i64 0, i64 0, i32 0, null, metadata !960, i32 0, i32 0} ; [ DW_TAG_subroutine_type ]
!960 = metadata !{metadata !55, metadata !957}
!961 = metadata !{i32 786478, i32 0, metadata !814, metadata !"to_uchar", metadata !"to_uchar", metadata !"_ZNK11ap_int_baseILi33ELb0ELb1EE8to_ucharEv", metadata !32, i32 1659, metadata !959, i1 false, i1 false, i32 0, i32 0, null, i32 256, i1 false, null, null, i32 0, metadata !44, i32 1659} ; [ DW_TAG_subprogram ]
!962 = metadata !{i32 786478, i32 0, metadata !814, metadata !"to_char", metadata !"to_char", metadata !"_ZNK11ap_int_baseILi33ELb0ELb1EE7to_charEv", metadata !32, i32 1660, metadata !959, i1 false, i1 false, i32 0, i32 0, null, i32 256, i1 false, null, null, i32 0, metadata !44, i32 1660} ; [ DW_TAG_subprogram ]
!963 = metadata !{i32 786478, i32 0, metadata !814, metadata !"to_ushort", metadata !"to_ushort", metadata !"_ZNK11ap_int_baseILi33ELb0ELb1EE9to_ushortEv", metadata !32, i32 1661, metadata !959, i1 false, i1 false, i32 0, i32 0, null, i32 256, i1 false, null, null, i32 0, metadata !44, i32 1661} ; [ DW_TAG_subprogram ]
!964 = metadata !{i32 786478, i32 0, metadata !814, metadata !"to_short", metadata !"to_short", metadata !"_ZNK11ap_int_baseILi33ELb0ELb1EE8to_shortEv", metadata !32, i32 1662, metadata !959, i1 false, i1 false, i32 0, i32 0, null, i32 256, i1 false, null, null, i32 0, metadata !44, i32 1662} ; [ DW_TAG_subprogram ]
!965 = metadata !{i32 786478, i32 0, metadata !814, metadata !"to_int", metadata !"to_int", metadata !"_ZNK11ap_int_baseILi33ELb0ELb1EE6to_intEv", metadata !32, i32 1663, metadata !966, i1 false, i1 false, i32 0, i32 0, null, i32 256, i1 false, null, null, i32 0, metadata !44, i32 1663} ; [ DW_TAG_subprogram ]
!966 = metadata !{i32 786453, i32 0, metadata !"", i32 0, i32 0, i64 0, i64 0, i64 0, i32 0, null, metadata !967, i32 0, i32 0} ; [ DW_TAG_subroutine_type ]
!967 = metadata !{metadata !53, metadata !957}
!968 = metadata !{i32 786478, i32 0, metadata !814, metadata !"to_uint", metadata !"to_uint", metadata !"_ZNK11ap_int_baseILi33ELb0ELb1EE7to_uintEv", metadata !32, i32 1664, metadata !969, i1 false, i1 false, i32 0, i32 0, null, i32 256, i1 false, null, null, i32 0, metadata !44, i32 1664} ; [ DW_TAG_subprogram ]
!969 = metadata !{i32 786453, i32 0, metadata !"", i32 0, i32 0, i64 0, i64 0, i64 0, i32 0, null, metadata !970, i32 0, i32 0} ; [ DW_TAG_subroutine_type ]
!970 = metadata !{metadata !99, metadata !957}
!971 = metadata !{i32 786478, i32 0, metadata !814, metadata !"to_long", metadata !"to_long", metadata !"_ZNK11ap_int_baseILi33ELb0ELb1EE7to_longEv", metadata !32, i32 1665, metadata !972, i1 false, i1 false, i32 0, i32 0, null, i32 256, i1 false, null, null, i32 0, metadata !44, i32 1665} ; [ DW_TAG_subprogram ]
!972 = metadata !{i32 786453, i32 0, metadata !"", i32 0, i32 0, i64 0, i64 0, i64 0, i32 0, null, metadata !973, i32 0, i32 0} ; [ DW_TAG_subroutine_type ]
!973 = metadata !{metadata !103, metadata !957}
!974 = metadata !{i32 786478, i32 0, metadata !814, metadata !"to_ulong", metadata !"to_ulong", metadata !"_ZNK11ap_int_baseILi33ELb0ELb1EE8to_ulongEv", metadata !32, i32 1666, metadata !975, i1 false, i1 false, i32 0, i32 0, null, i32 256, i1 false, null, null, i32 0, metadata !44, i32 1666} ; [ DW_TAG_subprogram ]
!975 = metadata !{i32 786453, i32 0, metadata !"", i32 0, i32 0, i64 0, i64 0, i64 0, i32 0, null, metadata !976, i32 0, i32 0} ; [ DW_TAG_subroutine_type ]
!976 = metadata !{metadata !107, metadata !957}
!977 = metadata !{i32 786478, i32 0, metadata !814, metadata !"to_int64", metadata !"to_int64", metadata !"_ZNK11ap_int_baseILi33ELb0ELb1EE8to_int64Ev", metadata !32, i32 1667, metadata !978, i1 false, i1 false, i32 0, i32 0, null, i32 256, i1 false, null, null, i32 0, metadata !44, i32 1667} ; [ DW_TAG_subprogram ]
!978 = metadata !{i32 786453, i32 0, metadata !"", i32 0, i32 0, i64 0, i64 0, i64 0, i32 0, null, metadata !979, i32 0, i32 0} ; [ DW_TAG_subroutine_type ]
!979 = metadata !{metadata !111, metadata !957}
!980 = metadata !{i32 786478, i32 0, metadata !814, metadata !"to_uint64", metadata !"to_uint64", metadata !"_ZNK11ap_int_baseILi33ELb0ELb1EE9to_uint64Ev", metadata !32, i32 1668, metadata !981, i1 false, i1 false, i32 0, i32 0, null, i32 256, i1 false, null, null, i32 0, metadata !44, i32 1668} ; [ DW_TAG_subprogram ]
!981 = metadata !{i32 786453, i32 0, metadata !"", i32 0, i32 0, i64 0, i64 0, i64 0, i32 0, null, metadata !982, i32 0, i32 0} ; [ DW_TAG_subroutine_type ]
!982 = metadata !{metadata !116, metadata !957}
!983 = metadata !{i32 786478, i32 0, metadata !814, metadata !"to_double", metadata !"to_double", metadata !"_ZNK11ap_int_baseILi33ELb0ELb1EE9to_doubleEv", metadata !32, i32 1669, metadata !984, i1 false, i1 false, i32 0, i32 0, null, i32 256, i1 false, null, null, i32 0, metadata !44, i32 1669} ; [ DW_TAG_subprogram ]
!984 = metadata !{i32 786453, i32 0, metadata !"", i32 0, i32 0, i64 0, i64 0, i64 0, i32 0, null, metadata !985, i32 0, i32 0} ; [ DW_TAG_subroutine_type ]
!985 = metadata !{metadata !125, metadata !957}
!986 = metadata !{i32 786478, i32 0, metadata !814, metadata !"length", metadata !"length", metadata !"_ZNK11ap_int_baseILi33ELb0ELb1EE6lengthEv", metadata !32, i32 1682, metadata !966, i1 false, i1 false, i32 0, i32 0, null, i32 256, i1 false, null, null, i32 0, metadata !44, i32 1682} ; [ DW_TAG_subprogram ]
!987 = metadata !{i32 786478, i32 0, metadata !814, metadata !"length", metadata !"length", metadata !"_ZNVK11ap_int_baseILi33ELb0ELb1EE6lengthEv", metadata !32, i32 1683, metadata !988, i1 false, i1 false, i32 0, i32 0, null, i32 256, i1 false, null, null, i32 0, metadata !44, i32 1683} ; [ DW_TAG_subprogram ]
!988 = metadata !{i32 786453, i32 0, metadata !"", i32 0, i32 0, i64 0, i64 0, i64 0, i32 0, null, metadata !989, i32 0, i32 0} ; [ DW_TAG_subroutine_type ]
!989 = metadata !{metadata !53, metadata !990}
!990 = metadata !{i32 786447, i32 0, metadata !"", i32 0, i32 0, i64 64, i64 64, i64 0, i32 64, metadata !852} ; [ DW_TAG_pointer_type ]
!991 = metadata !{i32 786478, i32 0, metadata !814, metadata !"reverse", metadata !"reverse", metadata !"_ZN11ap_int_baseILi33ELb0ELb1EE7reverseEv", metadata !32, i32 1688, metadata !992, i1 false, i1 false, i32 0, i32 0, null, i32 256, i1 false, null, null, i32 0, metadata !44, i32 1688} ; [ DW_TAG_subprogram ]
!992 = metadata !{i32 786453, i32 0, metadata !"", i32 0, i32 0, i64 0, i64 0, i64 0, i32 0, null, metadata !993, i32 0, i32 0} ; [ DW_TAG_subroutine_type ]
!993 = metadata !{metadata !916, metadata !834}
!994 = metadata !{i32 786478, i32 0, metadata !814, metadata !"iszero", metadata !"iszero", metadata !"_ZNK11ap_int_baseILi33ELb0ELb1EE6iszeroEv", metadata !32, i32 1694, metadata !959, i1 false, i1 false, i32 0, i32 0, null, i32 256, i1 false, null, null, i32 0, metadata !44, i32 1694} ; [ DW_TAG_subprogram ]
!995 = metadata !{i32 786478, i32 0, metadata !814, metadata !"is_zero", metadata !"is_zero", metadata !"_ZNK11ap_int_baseILi33ELb0ELb1EE7is_zeroEv", metadata !32, i32 1699, metadata !959, i1 false, i1 false, i32 0, i32 0, null, i32 256, i1 false, null, null, i32 0, metadata !44, i32 1699} ; [ DW_TAG_subprogram ]
!996 = metadata !{i32 786478, i32 0, metadata !814, metadata !"sign", metadata !"sign", metadata !"_ZNK11ap_int_baseILi33ELb0ELb1EE4signEv", metadata !32, i32 1704, metadata !959, i1 false, i1 false, i32 0, i32 0, null, i32 256, i1 false, null, null, i32 0, metadata !44, i32 1704} ; [ DW_TAG_subprogram ]
!997 = metadata !{i32 786478, i32 0, metadata !814, metadata !"clear", metadata !"clear", metadata !"_ZN11ap_int_baseILi33ELb0ELb1EE5clearEi", metadata !32, i32 1712, metadata !873, i1 false, i1 false, i32 0, i32 0, null, i32 256, i1 false, null, null, i32 0, metadata !44, i32 1712} ; [ DW_TAG_subprogram ]
!998 = metadata !{i32 786478, i32 0, metadata !814, metadata !"invert", metadata !"invert", metadata !"_ZN11ap_int_baseILi33ELb0ELb1EE6invertEi", metadata !32, i32 1718, metadata !873, i1 false, i1 false, i32 0, i32 0, null, i32 256, i1 false, null, null, i32 0, metadata !44, i32 1718} ; [ DW_TAG_subprogram ]
!999 = metadata !{i32 786478, i32 0, metadata !814, metadata !"test", metadata !"test", metadata !"_ZNK11ap_int_baseILi33ELb0ELb1EE4testEi", metadata !32, i32 1726, metadata !1000, i1 false, i1 false, i32 0, i32 0, null, i32 256, i1 false, null, null, i32 0, metadata !44, i32 1726} ; [ DW_TAG_subprogram ]
!1000 = metadata !{i32 786453, i32 0, metadata !"", i32 0, i32 0, i64 0, i64 0, i64 0, i32 0, null, metadata !1001, i32 0, i32 0} ; [ DW_TAG_subroutine_type ]
!1001 = metadata !{metadata !55, metadata !957, metadata !53}
!1002 = metadata !{i32 786478, i32 0, metadata !814, metadata !"set", metadata !"set", metadata !"_ZN11ap_int_baseILi33ELb0ELb1EE3setEi", metadata !32, i32 1732, metadata !873, i1 false, i1 false, i32 0, i32 0, null, i32 256, i1 false, null, null, i32 0, metadata !44, i32 1732} ; [ DW_TAG_subprogram ]
!1003 = metadata !{i32 786478, i32 0, metadata !814, metadata !"set", metadata !"set", metadata !"_ZN11ap_int_baseILi33ELb0ELb1EE3setEib", metadata !32, i32 1738, metadata !1004, i1 false, i1 false, i32 0, i32 0, null, i32 256, i1 false, null, null, i32 0, metadata !44, i32 1738} ; [ DW_TAG_subprogram ]
!1004 = metadata !{i32 786453, i32 0, metadata !"", i32 0, i32 0, i64 0, i64 0, i64 0, i32 0, null, metadata !1005, i32 0, i32 0} ; [ DW_TAG_subroutine_type ]
!1005 = metadata !{null, metadata !834, metadata !53, metadata !55}
!1006 = metadata !{i32 786478, i32 0, metadata !814, metadata !"lrotate", metadata !"lrotate", metadata !"_ZN11ap_int_baseILi33ELb0ELb1EE7lrotateEi", metadata !32, i32 1745, metadata !873, i1 false, i1 false, i32 0, i32 0, null, i32 256, i1 false, null, null, i32 0, metadata !44, i32 1745} ; [ DW_TAG_subprogram ]
!1007 = metadata !{i32 786478, i32 0, metadata !814, metadata !"rrotate", metadata !"rrotate", metadata !"_ZN11ap_int_baseILi33ELb0ELb1EE7rrotateEi", metadata !32, i32 1754, metadata !873, i1 false, i1 false, i32 0, i32 0, null, i32 256, i1 false, null, null, i32 0, metadata !44, i32 1754} ; [ DW_TAG_subprogram ]
!1008 = metadata !{i32 786478, i32 0, metadata !814, metadata !"set_bit", metadata !"set_bit", metadata !"_ZN11ap_int_baseILi33ELb0ELb1EE7set_bitEib", metadata !32, i32 1762, metadata !1004, i1 false, i1 false, i32 0, i32 0, null, i32 256, i1 false, null, null, i32 0, metadata !44, i32 1762} ; [ DW_TAG_subprogram ]
!1009 = metadata !{i32 786478, i32 0, metadata !814, metadata !"get_bit", metadata !"get_bit", metadata !"_ZNK11ap_int_baseILi33ELb0ELb1EE7get_bitEi", metadata !32, i32 1767, metadata !1000, i1 false, i1 false, i32 0, i32 0, null, i32 256, i1 false, null, null, i32 0, metadata !44, i32 1767} ; [ DW_TAG_subprogram ]
!1010 = metadata !{i32 786478, i32 0, metadata !814, metadata !"b_not", metadata !"b_not", metadata !"_ZN11ap_int_baseILi33ELb0ELb1EE5b_notEv", metadata !32, i32 1772, metadata !832, i1 false, i1 false, i32 0, i32 0, null, i32 256, i1 false, null, null, i32 0, metadata !44, i32 1772} ; [ DW_TAG_subprogram ]
!1011 = metadata !{i32 786478, i32 0, metadata !814, metadata !"countLeadingZeros", metadata !"countLeadingZeros", metadata !"_ZN11ap_int_baseILi33ELb0ELb1EE17countLeadingZerosEv", metadata !32, i32 1779, metadata !1012, i1 false, i1 false, i32 0, i32 0, null, i32 256, i1 false, null, null, i32 0, metadata !44, i32 1779} ; [ DW_TAG_subprogram ]
!1012 = metadata !{i32 786453, i32 0, metadata !"", i32 0, i32 0, i64 0, i64 0, i64 0, i32 0, null, metadata !1013, i32 0, i32 0} ; [ DW_TAG_subroutine_type ]
!1013 = metadata !{metadata !53, metadata !834}
!1014 = metadata !{i32 786478, i32 0, metadata !814, metadata !"operator++", metadata !"operator++", metadata !"_ZN11ap_int_baseILi33ELb0ELb1EEppEv", metadata !32, i32 1836, metadata !992, i1 false, i1 false, i32 0, i32 0, null, i32 256, i1 false, null, null, i32 0, metadata !44, i32 1836} ; [ DW_TAG_subprogram ]
!1015 = metadata !{i32 786478, i32 0, metadata !814, metadata !"operator--", metadata !"operator--", metadata !"_ZN11ap_int_baseILi33ELb0ELb1EEmmEv", metadata !32, i32 1840, metadata !992, i1 false, i1 false, i32 0, i32 0, null, i32 256, i1 false, null, null, i32 0, metadata !44, i32 1840} ; [ DW_TAG_subprogram ]
!1016 = metadata !{i32 786478, i32 0, metadata !814, metadata !"operator++", metadata !"operator++", metadata !"_ZN11ap_int_baseILi33ELb0ELb1EEppEi", metadata !32, i32 1848, metadata !1017, i1 false, i1 false, i32 0, i32 0, null, i32 256, i1 false, null, null, i32 0, metadata !44, i32 1848} ; [ DW_TAG_subprogram ]
!1017 = metadata !{i32 786453, i32 0, metadata !"", i32 0, i32 0, i64 0, i64 0, i64 0, i32 0, null, metadata !1018, i32 0, i32 0} ; [ DW_TAG_subroutine_type ]
!1018 = metadata !{metadata !813, metadata !834, metadata !53}
!1019 = metadata !{i32 786478, i32 0, metadata !814, metadata !"operator--", metadata !"operator--", metadata !"_ZN11ap_int_baseILi33ELb0ELb1EEmmEi", metadata !32, i32 1853, metadata !1017, i1 false, i1 false, i32 0, i32 0, null, i32 256, i1 false, null, null, i32 0, metadata !44, i32 1853} ; [ DW_TAG_subprogram ]
!1020 = metadata !{i32 786478, i32 0, metadata !814, metadata !"operator+", metadata !"operator+", metadata !"_ZNK11ap_int_baseILi33ELb0ELb1EEpsEv", metadata !32, i32 1862, metadata !1021, i1 false, i1 false, i32 0, i32 0, null, i32 256, i1 false, null, null, i32 0, metadata !44, i32 1862} ; [ DW_TAG_subprogram ]
!1021 = metadata !{i32 786453, i32 0, metadata !"", i32 0, i32 0, i64 0, i64 0, i64 0, i32 0, null, metadata !1022, i32 0, i32 0} ; [ DW_TAG_subroutine_type ]
!1022 = metadata !{metadata !814, metadata !957}
!1023 = metadata !{i32 786478, i32 0, metadata !814, metadata !"operator!", metadata !"operator!", metadata !"_ZNK11ap_int_baseILi33ELb0ELb1EEntEv", metadata !32, i32 1868, metadata !959, i1 false, i1 false, i32 0, i32 0, null, i32 256, i1 false, null, null, i32 0, metadata !44, i32 1868} ; [ DW_TAG_subprogram ]
!1024 = metadata !{i32 786478, i32 0, metadata !814, metadata !"operator-", metadata !"operator-", metadata !"_ZNK11ap_int_baseILi33ELb0ELb1EEngEv", metadata !32, i32 1873, metadata !1025, i1 false, i1 false, i32 0, i32 0, null, i32 256, i1 false, null, null, i32 0, metadata !44, i32 1873} ; [ DW_TAG_subprogram ]
!1025 = metadata !{i32 786453, i32 0, metadata !"", i32 0, i32 0, i64 0, i64 0, i64 0, i32 0, null, metadata !1026, i32 0, i32 0} ; [ DW_TAG_subroutine_type ]
!1026 = metadata !{metadata !465, metadata !957}
!1027 = metadata !{i32 786478, i32 0, metadata !814, metadata !"range", metadata !"range", metadata !"_ZN11ap_int_baseILi33ELb0ELb1EE5rangeEii", metadata !32, i32 2003, metadata !1028, i1 false, i1 false, i32 0, i32 0, null, i32 256, i1 false, null, null, i32 0, metadata !44, i32 2003} ; [ DW_TAG_subprogram ]
!1028 = metadata !{i32 786453, i32 0, metadata !"", i32 0, i32 0, i64 0, i64 0, i64 0, i32 0, null, metadata !1029, i32 0, i32 0} ; [ DW_TAG_subroutine_type ]
!1029 = metadata !{metadata !1030, metadata !834, metadata !53, metadata !53}
!1030 = metadata !{i32 786434, null, metadata !"ap_range_ref<33, false>", metadata !32, i32 922, i32 0, i32 0, i32 0, i32 4, null, null, i32 0} ; [ DW_TAG_class_type ]
!1031 = metadata !{i32 786478, i32 0, metadata !814, metadata !"operator()", metadata !"operator()", metadata !"_ZN11ap_int_baseILi33ELb0ELb1EEclEii", metadata !32, i32 2009, metadata !1028, i1 false, i1 false, i32 0, i32 0, null, i32 256, i1 false, null, null, i32 0, metadata !44, i32 2009} ; [ DW_TAG_subprogram ]
!1032 = metadata !{i32 786478, i32 0, metadata !814, metadata !"range", metadata !"range", metadata !"_ZNK11ap_int_baseILi33ELb0ELb1EE5rangeEii", metadata !32, i32 2015, metadata !1033, i1 false, i1 false, i32 0, i32 0, null, i32 256, i1 false, null, null, i32 0, metadata !44, i32 2015} ; [ DW_TAG_subprogram ]
!1033 = metadata !{i32 786453, i32 0, metadata !"", i32 0, i32 0, i64 0, i64 0, i64 0, i32 0, null, metadata !1034, i32 0, i32 0} ; [ DW_TAG_subroutine_type ]
!1034 = metadata !{metadata !1030, metadata !957, metadata !53, metadata !53}
!1035 = metadata !{i32 786478, i32 0, metadata !814, metadata !"operator()", metadata !"operator()", metadata !"_ZNK11ap_int_baseILi33ELb0ELb1EEclEii", metadata !32, i32 2021, metadata !1033, i1 false, i1 false, i32 0, i32 0, null, i32 256, i1 false, null, null, i32 0, metadata !44, i32 2021} ; [ DW_TAG_subprogram ]
!1036 = metadata !{i32 786478, i32 0, metadata !814, metadata !"operator[]", metadata !"operator[]", metadata !"_ZN11ap_int_baseILi33ELb0ELb1EEixEi", metadata !32, i32 2040, metadata !1037, i1 false, i1 false, i32 0, i32 0, null, i32 256, i1 false, null, null, i32 0, metadata !44, i32 2040} ; [ DW_TAG_subprogram ]
!1037 = metadata !{i32 786453, i32 0, metadata !"", i32 0, i32 0, i64 0, i64 0, i64 0, i32 0, null, metadata !1038, i32 0, i32 0} ; [ DW_TAG_subroutine_type ]
!1038 = metadata !{metadata !1039, metadata !834, metadata !53}
!1039 = metadata !{i32 786434, null, metadata !"ap_bit_ref<33, false>", metadata !32, i32 1192, i64 128, i64 64, i32 0, i32 0, null, metadata !1040, i32 0, null, metadata !1073} ; [ DW_TAG_class_type ]
!1040 = metadata !{metadata !1041, metadata !1042, metadata !1043, metadata !1049, metadata !1053, metadata !1057, metadata !1058, metadata !1062, metadata !1065, metadata !1066, metadata !1069, metadata !1070}
!1041 = metadata !{i32 786445, metadata !1039, metadata !"d_bv", metadata !32, i32 1193, i64 64, i64 64, i64 0, i32 0, metadata !916} ; [ DW_TAG_member ]
!1042 = metadata !{i32 786445, metadata !1039, metadata !"d_index", metadata !32, i32 1194, i64 32, i64 32, i64 64, i32 0, metadata !53} ; [ DW_TAG_member ]
!1043 = metadata !{i32 786478, i32 0, metadata !1039, metadata !"ap_bit_ref", metadata !"ap_bit_ref", metadata !"", metadata !32, i32 1197, metadata !1044, i1 false, i1 false, i32 0, i32 0, null, i32 256, i1 false, null, null, i32 0, metadata !44, i32 1197} ; [ DW_TAG_subprogram ]
!1044 = metadata !{i32 786453, i32 0, metadata !"", i32 0, i32 0, i64 0, i64 0, i64 0, i32 0, null, metadata !1045, i32 0, i32 0} ; [ DW_TAG_subroutine_type ]
!1045 = metadata !{null, metadata !1046, metadata !1047}
!1046 = metadata !{i32 786447, i32 0, metadata !"", i32 0, i32 0, i64 64, i64 64, i64 0, i32 64, metadata !1039} ; [ DW_TAG_pointer_type ]
!1047 = metadata !{i32 786448, null, null, null, i32 0, i64 0, i64 0, i64 0, i32 0, metadata !1048} ; [ DW_TAG_reference_type ]
!1048 = metadata !{i32 786470, null, metadata !"", null, i32 0, i64 0, i64 0, i64 0, i32 0, metadata !1039} ; [ DW_TAG_const_type ]
!1049 = metadata !{i32 786478, i32 0, metadata !1039, metadata !"ap_bit_ref", metadata !"ap_bit_ref", metadata !"", metadata !32, i32 1200, metadata !1050, i1 false, i1 false, i32 0, i32 0, null, i32 256, i1 false, null, null, i32 0, metadata !44, i32 1200} ; [ DW_TAG_subprogram ]
!1050 = metadata !{i32 786453, i32 0, metadata !"", i32 0, i32 0, i64 0, i64 0, i64 0, i32 0, null, metadata !1051, i32 0, i32 0} ; [ DW_TAG_subroutine_type ]
!1051 = metadata !{null, metadata !1046, metadata !1052, metadata !53}
!1052 = metadata !{i32 786447, null, metadata !"", null, i32 0, i64 64, i64 64, i64 0, i32 0, metadata !814} ; [ DW_TAG_pointer_type ]
!1053 = metadata !{i32 786478, i32 0, metadata !1039, metadata !"operator _Bool", metadata !"operator _Bool", metadata !"_ZNK10ap_bit_refILi33ELb0EEcvbEv", metadata !32, i32 1202, metadata !1054, i1 false, i1 false, i32 0, i32 0, null, i32 256, i1 false, null, null, i32 0, metadata !44, i32 1202} ; [ DW_TAG_subprogram ]
!1054 = metadata !{i32 786453, i32 0, metadata !"", i32 0, i32 0, i64 0, i64 0, i64 0, i32 0, null, metadata !1055, i32 0, i32 0} ; [ DW_TAG_subroutine_type ]
!1055 = metadata !{metadata !55, metadata !1056}
!1056 = metadata !{i32 786447, i32 0, metadata !"", i32 0, i32 0, i64 64, i64 64, i64 0, i32 64, metadata !1048} ; [ DW_TAG_pointer_type ]
!1057 = metadata !{i32 786478, i32 0, metadata !1039, metadata !"to_bool", metadata !"to_bool", metadata !"_ZNK10ap_bit_refILi33ELb0EE7to_boolEv", metadata !32, i32 1203, metadata !1054, i1 false, i1 false, i32 0, i32 0, null, i32 256, i1 false, null, null, i32 0, metadata !44, i32 1203} ; [ DW_TAG_subprogram ]
!1058 = metadata !{i32 786478, i32 0, metadata !1039, metadata !"operator=", metadata !"operator=", metadata !"_ZN10ap_bit_refILi33ELb0EEaSEy", metadata !32, i32 1205, metadata !1059, i1 false, i1 false, i32 0, i32 0, null, i32 256, i1 false, null, null, i32 0, metadata !44, i32 1205} ; [ DW_TAG_subprogram ]
!1059 = metadata !{i32 786453, i32 0, metadata !"", i32 0, i32 0, i64 0, i64 0, i64 0, i32 0, null, metadata !1060, i32 0, i32 0} ; [ DW_TAG_subroutine_type ]
!1060 = metadata !{metadata !1061, metadata !1046, metadata !117}
!1061 = metadata !{i32 786448, null, null, null, i32 0, i64 0, i64 0, i64 0, i32 0, metadata !1039} ; [ DW_TAG_reference_type ]
!1062 = metadata !{i32 786478, i32 0, metadata !1039, metadata !"operator=", metadata !"operator=", metadata !"_ZN10ap_bit_refILi33ELb0EEaSERKS0_", metadata !32, i32 1225, metadata !1063, i1 false, i1 false, i32 0, i32 0, null, i32 256, i1 false, null, null, i32 0, metadata !44, i32 1225} ; [ DW_TAG_subprogram ]
!1063 = metadata !{i32 786453, i32 0, metadata !"", i32 0, i32 0, i64 0, i64 0, i64 0, i32 0, null, metadata !1064, i32 0, i32 0} ; [ DW_TAG_subroutine_type ]
!1064 = metadata !{metadata !1061, metadata !1046, metadata !1047}
!1065 = metadata !{i32 786478, i32 0, metadata !1039, metadata !"get", metadata !"get", metadata !"_ZNK10ap_bit_refILi33ELb0EE3getEv", metadata !32, i32 1333, metadata !1054, i1 false, i1 false, i32 0, i32 0, null, i32 256, i1 false, null, null, i32 0, metadata !44, i32 1333} ; [ DW_TAG_subprogram ]
!1066 = metadata !{i32 786478, i32 0, metadata !1039, metadata !"get", metadata !"get", metadata !"_ZN10ap_bit_refILi33ELb0EE3getEv", metadata !32, i32 1337, metadata !1067, i1 false, i1 false, i32 0, i32 0, null, i32 256, i1 false, null, null, i32 0, metadata !44, i32 1337} ; [ DW_TAG_subprogram ]
!1067 = metadata !{i32 786453, i32 0, metadata !"", i32 0, i32 0, i64 0, i64 0, i64 0, i32 0, null, metadata !1068, i32 0, i32 0} ; [ DW_TAG_subroutine_type ]
!1068 = metadata !{metadata !55, metadata !1046}
!1069 = metadata !{i32 786478, i32 0, metadata !1039, metadata !"operator~", metadata !"operator~", metadata !"_ZNK10ap_bit_refILi33ELb0EEcoEv", metadata !32, i32 1346, metadata !1054, i1 false, i1 false, i32 0, i32 0, null, i32 256, i1 false, null, null, i32 0, metadata !44, i32 1346} ; [ DW_TAG_subprogram ]
!1070 = metadata !{i32 786478, i32 0, metadata !1039, metadata !"length", metadata !"length", metadata !"_ZNK10ap_bit_refILi33ELb0EE6lengthEv", metadata !32, i32 1351, metadata !1071, i1 false, i1 false, i32 0, i32 0, null, i32 256, i1 false, null, null, i32 0, metadata !44, i32 1351} ; [ DW_TAG_subprogram ]
!1071 = metadata !{i32 786453, i32 0, metadata !"", i32 0, i32 0, i64 0, i64 0, i64 0, i32 0, null, metadata !1072, i32 0, i32 0} ; [ DW_TAG_subroutine_type ]
!1072 = metadata !{metadata !53, metadata !1056}
!1073 = metadata !{metadata !513, metadata !54}
!1074 = metadata !{i32 786478, i32 0, metadata !814, metadata !"operator[]", metadata !"operator[]", metadata !"_ZNK11ap_int_baseILi33ELb0ELb1EEixEi", metadata !32, i32 2054, metadata !1000, i1 false, i1 false, i32 0, i32 0, null, i32 256, i1 false, null, null, i32 0, metadata !44, i32 2054} ; [ DW_TAG_subprogram ]
!1075 = metadata !{i32 786478, i32 0, metadata !814, metadata !"bit", metadata !"bit", metadata !"_ZN11ap_int_baseILi33ELb0ELb1EE3bitEi", metadata !32, i32 2068, metadata !1037, i1 false, i1 false, i32 0, i32 0, null, i32 256, i1 false, null, null, i32 0, metadata !44, i32 2068} ; [ DW_TAG_subprogram ]
!1076 = metadata !{i32 786478, i32 0, metadata !814, metadata !"bit", metadata !"bit", metadata !"_ZNK11ap_int_baseILi33ELb0ELb1EE3bitEi", metadata !32, i32 2082, metadata !1000, i1 false, i1 false, i32 0, i32 0, null, i32 256, i1 false, null, null, i32 0, metadata !44, i32 2082} ; [ DW_TAG_subprogram ]
!1077 = metadata !{i32 786478, i32 0, metadata !814, metadata !"and_reduce", metadata !"and_reduce", metadata !"_ZN11ap_int_baseILi33ELb0ELb1EE10and_reduceEv", metadata !32, i32 2262, metadata !1078, i1 false, i1 false, i32 0, i32 0, null, i32 256, i1 false, null, null, i32 0, metadata !44, i32 2262} ; [ DW_TAG_subprogram ]
!1078 = metadata !{i32 786453, i32 0, metadata !"", i32 0, i32 0, i64 0, i64 0, i64 0, i32 0, null, metadata !1079, i32 0, i32 0} ; [ DW_TAG_subroutine_type ]
!1079 = metadata !{metadata !55, metadata !834}
!1080 = metadata !{i32 786478, i32 0, metadata !814, metadata !"nand_reduce", metadata !"nand_reduce", metadata !"_ZN11ap_int_baseILi33ELb0ELb1EE11nand_reduceEv", metadata !32, i32 2265, metadata !1078, i1 false, i1 false, i32 0, i32 0, null, i32 256, i1 false, null, null, i32 0, metadata !44, i32 2265} ; [ DW_TAG_subprogram ]
!1081 = metadata !{i32 786478, i32 0, metadata !814, metadata !"or_reduce", metadata !"or_reduce", metadata !"_ZN11ap_int_baseILi33ELb0ELb1EE9or_reduceEv", metadata !32, i32 2268, metadata !1078, i1 false, i1 false, i32 0, i32 0, null, i32 256, i1 false, null, null, i32 0, metadata !44, i32 2268} ; [ DW_TAG_subprogram ]
!1082 = metadata !{i32 786478, i32 0, metadata !814, metadata !"nor_reduce", metadata !"nor_reduce", metadata !"_ZN11ap_int_baseILi33ELb0ELb1EE10nor_reduceEv", metadata !32, i32 2271, metadata !1078, i1 false, i1 false, i32 0, i32 0, null, i32 256, i1 false, null, null, i32 0, metadata !44, i32 2271} ; [ DW_TAG_subprogram ]
!1083 = metadata !{i32 786478, i32 0, metadata !814, metadata !"xor_reduce", metadata !"xor_reduce", metadata !"_ZN11ap_int_baseILi33ELb0ELb1EE10xor_reduceEv", metadata !32, i32 2274, metadata !1078, i1 false, i1 false, i32 0, i32 0, null, i32 256, i1 false, null, null, i32 0, metadata !44, i32 2274} ; [ DW_TAG_subprogram ]
!1084 = metadata !{i32 786478, i32 0, metadata !814, metadata !"xnor_reduce", metadata !"xnor_reduce", metadata !"_ZN11ap_int_baseILi33ELb0ELb1EE11xnor_reduceEv", metadata !32, i32 2277, metadata !1078, i1 false, i1 false, i32 0, i32 0, null, i32 256, i1 false, null, null, i32 0, metadata !44, i32 2277} ; [ DW_TAG_subprogram ]
!1085 = metadata !{i32 786478, i32 0, metadata !814, metadata !"and_reduce", metadata !"and_reduce", metadata !"_ZNK11ap_int_baseILi33ELb0ELb1EE10and_reduceEv", metadata !32, i32 2281, metadata !959, i1 false, i1 false, i32 0, i32 0, null, i32 256, i1 false, null, null, i32 0, metadata !44, i32 2281} ; [ DW_TAG_subprogram ]
!1086 = metadata !{i32 786478, i32 0, metadata !814, metadata !"nand_reduce", metadata !"nand_reduce", metadata !"_ZNK11ap_int_baseILi33ELb0ELb1EE11nand_reduceEv", metadata !32, i32 2284, metadata !959, i1 false, i1 false, i32 0, i32 0, null, i32 256, i1 false, null, null, i32 0, metadata !44, i32 2284} ; [ DW_TAG_subprogram ]
!1087 = metadata !{i32 786478, i32 0, metadata !814, metadata !"or_reduce", metadata !"or_reduce", metadata !"_ZNK11ap_int_baseILi33ELb0ELb1EE9or_reduceEv", metadata !32, i32 2287, metadata !959, i1 false, i1 false, i32 0, i32 0, null, i32 256, i1 false, null, null, i32 0, metadata !44, i32 2287} ; [ DW_TAG_subprogram ]
!1088 = metadata !{i32 786478, i32 0, metadata !814, metadata !"nor_reduce", metadata !"nor_reduce", metadata !"_ZNK11ap_int_baseILi33ELb0ELb1EE10nor_reduceEv", metadata !32, i32 2290, metadata !959, i1 false, i1 false, i32 0, i32 0, null, i32 256, i1 false, null, null, i32 0, metadata !44, i32 2290} ; [ DW_TAG_subprogram ]
!1089 = metadata !{i32 786478, i32 0, metadata !814, metadata !"xor_reduce", metadata !"xor_reduce", metadata !"_ZNK11ap_int_baseILi33ELb0ELb1EE10xor_reduceEv", metadata !32, i32 2293, metadata !959, i1 false, i1 false, i32 0, i32 0, null, i32 256, i1 false, null, null, i32 0, metadata !44, i32 2293} ; [ DW_TAG_subprogram ]
!1090 = metadata !{i32 786478, i32 0, metadata !814, metadata !"xnor_reduce", metadata !"xnor_reduce", metadata !"_ZNK11ap_int_baseILi33ELb0ELb1EE11xnor_reduceEv", metadata !32, i32 2296, metadata !959, i1 false, i1 false, i32 0, i32 0, null, i32 256, i1 false, null, null, i32 0, metadata !44, i32 2296} ; [ DW_TAG_subprogram ]
!1091 = metadata !{i32 786478, i32 0, metadata !814, metadata !"to_string", metadata !"to_string", metadata !"_ZNK11ap_int_baseILi33ELb0ELb1EE9to_stringEPci8BaseModeb", metadata !32, i32 2303, metadata !1092, i1 false, i1 false, i32 0, i32 0, null, i32 256, i1 false, null, null, i32 0, metadata !44, i32 2303} ; [ DW_TAG_subprogram ]
!1092 = metadata !{i32 786453, i32 0, metadata !"", i32 0, i32 0, i64 0, i64 0, i64 0, i32 0, null, metadata !1093, i32 0, i32 0} ; [ DW_TAG_subroutine_type ]
!1093 = metadata !{null, metadata !957, metadata !534, metadata !53, metadata !535, metadata !55}
!1094 = metadata !{i32 786478, i32 0, metadata !814, metadata !"to_string", metadata !"to_string", metadata !"_ZNK11ap_int_baseILi33ELb0ELb1EE9to_stringE8BaseModeb", metadata !32, i32 2330, metadata !1095, i1 false, i1 false, i32 0, i32 0, null, i32 256, i1 false, null, null, i32 0, metadata !44, i32 2330} ; [ DW_TAG_subprogram ]
!1095 = metadata !{i32 786453, i32 0, metadata !"", i32 0, i32 0, i64 0, i64 0, i64 0, i32 0, null, metadata !1096, i32 0, i32 0} ; [ DW_TAG_subroutine_type ]
!1096 = metadata !{metadata !534, metadata !957, metadata !535, metadata !55}
!1097 = metadata !{i32 786478, i32 0, metadata !814, metadata !"to_string", metadata !"to_string", metadata !"_ZNK11ap_int_baseILi33ELb0ELb1EE9to_stringEab", metadata !32, i32 2334, metadata !1098, i1 false, i1 false, i32 0, i32 0, null, i32 256, i1 false, null, null, i32 0, metadata !44, i32 2334} ; [ DW_TAG_subprogram ]
!1098 = metadata !{i32 786453, i32 0, metadata !"", i32 0, i32 0, i64 0, i64 0, i64 0, i32 0, null, metadata !1099, i32 0, i32 0} ; [ DW_TAG_subroutine_type ]
!1099 = metadata !{metadata !534, metadata !957, metadata !80, metadata !55}
!1100 = metadata !{i32 786478, i32 0, metadata !814, metadata !"ap_int_base", metadata !"ap_int_base", metadata !"", metadata !32, i32 1396, metadata !839, i1 false, i1 false, i32 0, i32 0, null, i32 320, i1 false, null, null, i32 0, metadata !44, i32 1396} ; [ DW_TAG_subprogram ]
!1101 = metadata !{i32 786478, i32 0, metadata !814, metadata !"~ap_int_base", metadata !"~ap_int_base", metadata !"", metadata !32, i32 1396, metadata !832, i1 false, i1 false, i32 0, i32 0, null, i32 320, i1 false, null, null, i32 0, metadata !44, i32 1396} ; [ DW_TAG_subprogram ]
!1102 = metadata !{metadata !513, metadata !54, metadata !548}
!1103 = metadata !{i32 226, i32 106, metadata !1104, metadata !1105}
!1104 = metadata !{i32 786478, i32 0, null, metadata !"ap_uint<33, false>", metadata !"ap_uint<33, false>", metadata !"_ZN7ap_uintILi32EEC1ILi33ELb0EEERK11ap_int_baseIXT_EXT0_EXleT_Li64EEE", metadata !28, i32 226, metadata !810, i1 false, i1 true, i32 0, i32 0, null, i32 256, i1 false, null, metadata !841, null, metadata !44, i32 226} ; [ DW_TAG_subprogram ]
!1105 = metadata !{i32 50, i32 9, metadata !1106, metadata !1111}
!1106 = metadata !{i32 786443, metadata !1107, i32 49, i32 1, metadata !18, i32 1} ; [ DW_TAG_lexical_block ]
!1107 = metadata !{i32 786478, i32 0, metadata !18, metadata !"cordic", metadata !"cordic", metadata !"_Z6cordicR7ap_uintILi32EES0_S0_", metadata !18, i32 48, metadata !1108, i1 false, i1 true, i32 0, i32 0, null, i32 256, i1 false, null, null, null, metadata !44, i32 49} ; [ DW_TAG_subprogram ]
!1108 = metadata !{i32 786453, i32 0, metadata !"", i32 0, i32 0, i64 0, i64 0, i64 0, i32 0, null, metadata !1109, i32 0, i32 0} ; [ DW_TAG_subroutine_type ]
!1109 = metadata !{null, metadata !1110, metadata !798, metadata !798}
!1110 = metadata !{i32 786448, null, null, null, i32 0, i64 0, i64 0, i64 0, i32 0, metadata !798} ; [ DW_TAG_reference_type ]
!1111 = metadata !{i32 32, i32 3, metadata !791, null}
!1112 = metadata !{i32 790535, metadata !1113, metadata !"ssdm_int<32 + 1024 * 0, false>.V", null, i32 276, metadata !1115, i32 0, metadata !1105} ; [ DW_TAG_arg_variable_field_wo ]
!1113 = metadata !{i32 786689, metadata !801, metadata !"this", metadata !28, i32 16777492, metadata !1114, i32 64, i32 0} ; [ DW_TAG_arg_variable ]
!1114 = metadata !{i32 786447, null, metadata !"", null, i32 0, i64 64, i64 64, i64 0, i32 0, metadata !27} ; [ DW_TAG_pointer_type ]
!1115 = metadata !{i32 786447, null, metadata !"", null, i32 0, i64 64, i64 64, i64 0, i32 0, metadata !774} ; [ DW_TAG_pointer_type ]
!1116 = metadata !{i32 276, i32 53, metadata !801, metadata !1105}
!1117 = metadata !{i32 790529, metadata !1118, metadata !"sum.V", null, i32 20, metadata !774, i32 0, i32 0} ; [ DW_TAG_auto_variable_field ]
!1118 = metadata !{i32 786688, metadata !791, metadata !"sum", metadata !18, i32 20, metadata !798, i32 0, i32 0} ; [ DW_TAG_auto_variable ]
!1119 = metadata !{i32 790531, metadata !1120, metadata !"stream<ap_uint<32> >.V.V", null, i32 144, metadata !788, i32 0, i32 0} ; [ DW_TAG_arg_variable_field ]
!1120 = metadata !{i32 786689, metadata !1121, metadata !"this", metadata !24, i32 16777360, metadata !787, i32 64, i32 0} ; [ DW_TAG_arg_variable ]
!1121 = metadata !{i32 786478, i32 0, metadata !23, metadata !"write", metadata !"write", metadata !"_ZN3hls6streamI7ap_uintILi32EEE5writeERKS2_", metadata !24, i32 144, metadata !748, i1 false, i1 true, i32 0, i32 0, null, i32 256, i1 false, null, null, metadata !762, metadata !44, i32 144} ; [ DW_TAG_subprogram ]
!1122 = metadata !{i32 144, i32 48, metadata !1121, metadata !1123}
!1123 = metadata !{i32 38, i32 3, metadata !791, null}
!1124 = metadata !{i32 790529, metadata !1125, metadata !"tmp.V", null, i32 145, metadata !774, i32 0, i32 0} ; [ DW_TAG_auto_variable_field ]
!1125 = metadata !{i32 786688, metadata !1126, metadata !"tmp", metadata !24, i32 145, metadata !27, i32 0, i32 0} ; [ DW_TAG_auto_variable ]
!1126 = metadata !{i32 786443, metadata !1121, i32 144, i32 79, metadata !24, i32 9} ; [ DW_TAG_lexical_block ]
!1127 = metadata !{i32 145, i32 31, metadata !1126, metadata !1123}
!1128 = metadata !{i32 146, i32 9, metadata !1126, metadata !1123}
!1129 = metadata !{i32 39, i32 1, metadata !791, null}
